(dp0
S'win'
p1
ccopy_reg
_reconstructor
p2
(clibcloud.compute.drivers.gce
GCENodeImage
p3
c__builtin__
object
p4
Ntp5
Rp6
(dp7
S'extra'
p8
(dp9
S'status'
p10
VREADY
p11
sS'labels'
p12
NsS'sourceType'
p13
VRAW
p14
sS'family'
p15
Vsql-std-2014-win-2012-r2
p16
sS'deprecated'
p17
(dp18
Vstate
p19
VDEPRECATED
p20
sVreplacement
p21
Vhttps://www.googleapis.com/compute/v1/projects/windows-sql-cloud/global/images/sql-2014-standard-windows-2012-r2-dc-v20181211
p22
ssS'labelFingerprint'
p23
V42WmSpB8rSM=
p24
sS'rawDisk'
p25
(dp26
VcontainerType
p27
VTAR
p28
sVsource
p29
V
p30
ssS'archiveSizeBytes'
p31
V297787848192
p32
sS'guestOsFeatures'
p33
(lp34
(dp35
Vtype
p36
VMULTI_IP_SUBNET
p37
sa(dp38
Vtype
p39
VWINDOWS
p40
sa(dp41
Vtype
p42
VVIRTIO_SCSI_MULTIQUEUE
p43
sasS'diskSizeGb'
p44
V50
p45
sS'licenses'
p46
(lp47
g2
(clibcloud.compute.drivers.gce
GCELicense
p48
g4
Ntp49
Rp50
(dp51
S'name'
p52
Vsql-server-2014-standard
p53
sg8
(dp54
S'kind'
p55
Vcompute#license
p56
sS'selfLink'
p57
Vhttps://www.googleapis.com/compute/v1/projects/windows-sql-cloud/global/licenses/sql-server-2014-standard
p58
ssS'_uuid'
p59
NsS'driver'
p60
g2
(clibcloud.compute.drivers.gce
GCENodeDriver
p61
g4
Ntp62
Rp63
(dp64
S'auth_type'
p65
S'IA'
p66
sS'scopes'
p67
NsS'region_list'
p68
(lp69
g2
(clibcloud.compute.drivers.gce
GCERegion
p70
g4
Ntp71
Rp72
(dp73
g10
VUP
p74
sg52
Vasia-east1
p75
sg8
(dp76
S'creationTimestamp'
p77
V1969-12-31T16:00:00.000-08:00
p78
sS'description'
p79
Vasia-east1
p80
sg57
Vhttps://www.googleapis.com/compute/v1/projects/libcloud-221521/regions/asia-east1
p81
ssg17
Nsg59
Nsg60
g63
sS'quotas'
p82
(lp83
(dp84
Vusage
p85
F0.0
sVmetric
p86
VCPUS
p87
sVlimit
p88
F72.0
sa(dp89
Vusage
p90
F0.0
sVmetric
p91
VDISKS_TOTAL_GB
p92
sVlimit
p93
F40960.0
sa(dp94
Vusage
p95
F0.0
sVmetric
p96
VSTATIC_ADDRESSES
p97
sVlimit
p98
F21.0
sa(dp99
Vusage
p100
F0.0
sVmetric
p101
VIN_USE_ADDRESSES
p102
sVlimit
p103
F69.0
sa(dp104
Vusage
p105
F0.0
sVmetric
p106
VSSD_TOTAL_GB
p107
sVlimit
p108
F20480.0
sa(dp109
Vusage
p110
F0.0
sVmetric
p111
VLOCAL_SSD_TOTAL_GB
p112
sVlimit
p113
F20000.0
sa(dp114
Vusage
p115
F0.0
sVmetric
p116
VINSTANCE_GROUPS
p117
sVlimit
p118
F300.0
sa(dp119
Vusage
p120
F0.0
sVmetric
p121
VINSTANCE_GROUP_MANAGERS
p122
sVlimit
p123
F150.0
sa(dp124
Vusage
p125
F0.0
sVmetric
p126
VINSTANCES
p127
sVlimit
p128
F720.0
sa(dp129
Vusage
p130
F0.0
sVmetric
p131
VAUTOSCALERS
p132
sVlimit
p133
F150.0
sa(dp134
Vusage
p135
F0.0
sVmetric
p136
VREGIONAL_AUTOSCALERS
p137
sVlimit
p138
F100.0
sa(dp139
Vusage
p140
F0.0
sVmetric
p141
VREGIONAL_INSTANCE_GROUP_MANAGERS
p142
sVlimit
p143
F100.0
sa(dp144
Vusage
p145
F0.0
sVmetric
p146
VPREEMPTIBLE_CPUS
p147
sVlimit
p148
F0.0
sa(dp149
Vusage
p150
F0.0
sVmetric
p151
VNVIDIA_K80_GPUS
p152
sVlimit
p153
F8.0
sa(dp154
Vusage
p155
F0.0
sVmetric
p156
VCOMMITMENTS
p157
sVlimit
p158
F0.0
sa(dp159
Vusage
p160
F0.0
sVmetric
p161
VINTERNAL_ADDRESSES
p162
sVlimit
p163
F200.0
sa(dp164
Vusage
p165
F0.0
sVmetric
p166
VNVIDIA_P100_GPUS
p167
sVlimit
p168
F1.0
sa(dp169
Vusage
p170
F0.0
sVmetric
p171
VPREEMPTIBLE_LOCAL_SSD_GB
p172
sVlimit
p173
F0.0
sa(dp174
Vusage
p175
F0.0
sVmetric
p176
VPREEMPTIBLE_NVIDIA_K80_GPUS
p177
sVlimit
p178
F1.0
sa(dp179
Vusage
p180
F0.0
sVmetric
p181
VPREEMPTIBLE_NVIDIA_P100_GPUS
p182
sVlimit
p183
F1.0
sa(dp184
Vusage
p185
F0.0
sVmetric
p186
VNVIDIA_P100_VWS_GPUS
p187
sVlimit
p188
F1.0
sa(dp189
Vusage
p190
F0.0
sVmetric
p191
VNVIDIA_V100_GPUS
p192
sVlimit
p193
F1.0
sa(dp194
Vusage
p195
F0.0
sVmetric
p196
VNVIDIA_P4_GPUS
p197
sVlimit
p198
F1.0
sa(dp199
Vusage
p200
F0.0
sVmetric
p201
VNVIDIA_P4_VWS_GPUS
p202
sVlimit
p203
F1.0
sa(dp204
Vusage
p205
F0.0
sVmetric
p206
VPREEMPTIBLE_NVIDIA_V100_GPUS
p207
sVlimit
p208
F1.0
sa(dp209
Vusage
p210
F0.0
sVmetric
p211
VPREEMPTIBLE_NVIDIA_P4_GPUS
p212
sVlimit
p213
F1.0
sa(dp214
Vusage
p215
F0.0
sVmetric
p216
VPREEMPTIBLE_NVIDIA_P100_VWS_GPUS
p217
sVlimit
p218
F1.0
sa(dp219
Vusage
p220
F0.0
sVmetric
p221
VPREEMPTIBLE_NVIDIA_P4_VWS_GPUS
p222
sVlimit
p223
F1.0
sa(dp224
Vusage
p225
F0.0
sVmetric
p226
VINTERCONNECT_ATTACHMENTS_PER_REGION
p227
sVlimit
p228
F16.0
sa(dp229
Vusage
p230
F0.0
sVmetric
p231
VINTERCONNECT_ATTACHMENTS_TOTAL_MBPS
p232
sVlimit
p233
F80000.0
sa(dp234
Vusage
p235
F0.0
sVmetric
p236
VRESOURCE_POLICIES
p237
sVlimit
p238
F10.0
sa(dp239
Vusage
p240
F0.0
sVmetric
p241
VIN_USE_BACKUP_SCHEDULES
p242
sVlimit
p243
F50.0
sa(dp244
Vusage
p245
F0.0
sVmetric
p246
VNVIDIA_T4_GPUS
p247
sVlimit
p248
F1.0
sa(dp249
Vusage
p250
F0.0
sVmetric
p251
VNVIDIA_T4_VWS_GPUS
p252
sVlimit
p253
F1.0
sa(dp254
Vusage
p255
F0.0
sVmetric
p256
VPREEMPTIBLE_NVIDIA_T4_GPUS
p257
sVlimit
p258
F1.0
sa(dp259
Vusage
p260
F0.0
sVmetric
p261
VPREEMPTIBLE_NVIDIA_T4_VWS_GPUS
p262
sVlimit
p263
F1.0
sasS'zones'
p264
(lp265
g2
(clibcloud.compute.drivers.gce
GCEZone
p266
g4
Ntp267
Rp268
(dp269
g10
VUP
p270
sS'maintenance_windows'
p271
Nsg52
Vasia-east1-a
p272
sg8
(dp273
S'region'
p274
Vhttps://www.googleapis.com/compute/v1/projects/libcloud-221521/regions/asia-east1
p275
sg77
V1969-12-31T16:00:00.000-08:00
p276
sg79
Vasia-east1-a
p277
sg57
Vhttps://www.googleapis.com/compute/v1/projects/libcloud-221521/zones/asia-east1-a
p278
ssg17
Nsg60
g63
sS'country'
p279
Vasia
p280
sS'id'
p281
S'2220'
p282
sbag2
(g266
g4
Ntp283
Rp284
(dp285
g10
VUP
p286
sg271
Nsg52
Vasia-east1-b
p287
sg8
(dp288
g274
Vhttps://www.googleapis.com/compute/v1/projects/libcloud-221521/regions/asia-east1
p289
sg77
V1969-12-31T16:00:00.000-08:00
p290
sg79
Vasia-east1-b
p291
sg57
Vhttps://www.googleapis.com/compute/v1/projects/libcloud-221521/zones/asia-east1-b
p292
ssg17
Nsg60
g63
sg279
Vasia
p293
sg281
S'2221'
p294
sbag2
(g266
g4
Ntp295
Rp296
(dp297
g10
VUP
p298
sg271
Nsg52
Vasia-east1-c
p299
sg8
(dp300
g274
Vhttps://www.googleapis.com/compute/v1/projects/libcloud-221521/regions/asia-east1
p301
sg77
V1969-12-31T16:00:00.000-08:00
p302
sg79
Vasia-east1-c
p303
sg57
Vhttps://www.googleapis.com/compute/v1/projects/libcloud-221521/zones/asia-east1-c
p304
ssg17
Nsg60
g63
sg279
Vasia
p305
sg281
S'2222'
p306
sbasg281
S'1220'
p307
sbag2
(g70
g4
Ntp308
Rp309
(dp310
g10
VUP
p311
sg52
Vasia-east2
p312
sg8
(dp313
g77
V1969-12-31T16:00:00.000-08:00
p314
sg79
Vasia-east2
p315
sg57
Vhttps://www.googleapis.com/compute/v1/projects/libcloud-221521/regions/asia-east2
p316
ssg17
Nsg59
Nsg60
g63
sg82
(lp317
(dp318
Vusage
p319
F0.0
sVmetric
p320
VCPUS
p321
sVlimit
p322
F8.0
sa(dp323
Vusage
p324
F0.0
sVmetric
p325
VDISKS_TOTAL_GB
p326
sVlimit
p327
F2048.0
sa(dp328
Vusage
p329
F0.0
sVmetric
p330
VSTATIC_ADDRESSES
p331
sVlimit
p332
F1.0
sa(dp333
Vusage
p334
F0.0
sVmetric
p335
VIN_USE_ADDRESSES
p336
sVlimit
p337
F8.0
sa(dp338
Vusage
p339
F0.0
sVmetric
p340
VSSD_TOTAL_GB
p341
sVlimit
p342
F100.0
sa(dp343
Vusage
p344
F0.0
sVmetric
p345
VLOCAL_SSD_TOTAL_GB
p346
sVlimit
p347
F1500.0
sa(dp348
Vusage
p349
F0.0
sVmetric
p350
VINSTANCE_GROUPS
p351
sVlimit
p352
F100.0
sa(dp353
Vusage
p354
F0.0
sVmetric
p355
VINSTANCE_GROUP_MANAGERS
p356
sVlimit
p357
F50.0
sa(dp358
Vusage
p359
F0.0
sVmetric
p360
VINSTANCES
p361
sVlimit
p362
F80.0
sa(dp363
Vusage
p364
F0.0
sVmetric
p365
VAUTOSCALERS
p366
sVlimit
p367
F50.0
sa(dp368
Vusage
p369
F0.0
sVmetric
p370
VREGIONAL_AUTOSCALERS
p371
sVlimit
p372
F20.0
sa(dp373
Vusage
p374
F0.0
sVmetric
p375
VREGIONAL_INSTANCE_GROUP_MANAGERS
p376
sVlimit
p377
F20.0
sa(dp378
Vusage
p379
F0.0
sVmetric
p380
VPREEMPTIBLE_CPUS
p381
sVlimit
p382
F0.0
sa(dp383
Vusage
p384
F0.0
sVmetric
p385
VNVIDIA_K80_GPUS
p386
sVlimit
p387
F1.0
sa(dp388
Vusage
p389
F0.0
sVmetric
p390
VCOMMITMENTS
p391
sVlimit
p392
F0.0
sa(dp393
Vusage
p394
F0.0
sVmetric
p395
VINTERNAL_ADDRESSES
p396
sVlimit
p397
F200.0
sa(dp398
Vusage
p399
F0.0
sVmetric
p400
VNVIDIA_P100_GPUS
p401
sVlimit
p402
F1.0
sa(dp403
Vusage
p404
F0.0
sVmetric
p405
VPREEMPTIBLE_LOCAL_SSD_GB
p406
sVlimit
p407
F0.0
sa(dp408
Vusage
p409
F0.0
sVmetric
p410
VPREEMPTIBLE_NVIDIA_K80_GPUS
p411
sVlimit
p412
F1.0
sa(dp413
Vusage
p414
F0.0
sVmetric
p415
VPREEMPTIBLE_NVIDIA_P100_GPUS
p416
sVlimit
p417
F1.0
sa(dp418
Vusage
p419
F0.0
sVmetric
p420
VNVIDIA_P100_VWS_GPUS
p421
sVlimit
p422
F1.0
sa(dp423
Vusage
p424
F0.0
sVmetric
p425
VNVIDIA_V100_GPUS
p426
sVlimit
p427
F1.0
sa(dp428
Vusage
p429
F0.0
sVmetric
p430
VNVIDIA_P4_GPUS
p431
sVlimit
p432
F1.0
sa(dp433
Vusage
p434
F0.0
sVmetric
p435
VNVIDIA_P4_VWS_GPUS
p436
sVlimit
p437
F1.0
sa(dp438
Vusage
p439
F0.0
sVmetric
p440
VPREEMPTIBLE_NVIDIA_V100_GPUS
p441
sVlimit
p442
F1.0
sa(dp443
Vusage
p444
F0.0
sVmetric
p445
VPREEMPTIBLE_NVIDIA_P4_GPUS
p446
sVlimit
p447
F1.0
sa(dp448
Vusage
p449
F0.0
sVmetric
p450
VPREEMPTIBLE_NVIDIA_P100_VWS_GPUS
p451
sVlimit
p452
F1.0
sa(dp453
Vusage
p454
F0.0
sVmetric
p455
VPREEMPTIBLE_NVIDIA_P4_VWS_GPUS
p456
sVlimit
p457
F1.0
sa(dp458
Vusage
p459
F0.0
sVmetric
p460
VINTERCONNECT_ATTACHMENTS_PER_REGION
p461
sVlimit
p462
F16.0
sa(dp463
Vusage
p464
F0.0
sVmetric
p465
VINTERCONNECT_ATTACHMENTS_TOTAL_MBPS
p466
sVlimit
p467
F80000.0
sa(dp468
Vusage
p469
F0.0
sVmetric
p470
VRESOURCE_POLICIES
p471
sVlimit
p472
F5.0
sa(dp473
Vusage
p474
F0.0
sVmetric
p475
VIN_USE_BACKUP_SCHEDULES
p476
sVlimit
p477
F20.0
sa(dp478
Vusage
p479
F0.0
sVmetric
p480
VNVIDIA_T4_GPUS
p481
sVlimit
p482
F1.0
sa(dp483
Vusage
p484
F0.0
sVmetric
p485
VNVIDIA_T4_VWS_GPUS
p486
sVlimit
p487
F1.0
sa(dp488
Vusage
p489
F0.0
sVmetric
p490
VPREEMPTIBLE_NVIDIA_T4_GPUS
p491
sVlimit
p492
F1.0
sa(dp493
Vusage
p494
F0.0
sVmetric
p495
VPREEMPTIBLE_NVIDIA_T4_VWS_GPUS
p496
sVlimit
p497
F1.0
sasg264
(lp498
g2
(g266
g4
Ntp499
Rp500
(dp501
g10
VUP
p502
sg271
Nsg52
Vasia-east2-c
p503
sg8
(dp504
g274
Vhttps://www.googleapis.com/compute/v1/projects/libcloud-221521/regions/asia-east2
p505
sg77
V1969-12-31T16:00:00.000-08:00
p506
sg79
Vasia-east2-c
p507
sg57
Vhttps://www.googleapis.com/compute/v1/projects/libcloud-221521/zones/asia-east2-c
p508
ssg17
Nsg60
g63
sg279
Vasia
p509
sg281
S'2370'
p510
sbag2
(g266
g4
Ntp511
Rp512
(dp513
g10
VUP
p514
sg271
Nsg52
Vasia-east2-b
p515
sg8
(dp516
g274
Vhttps://www.googleapis.com/compute/v1/projects/libcloud-221521/regions/asia-east2
p517
sg77
V1969-12-31T16:00:00.000-08:00
p518
sg79
Vasia-east2-b
p519
sg57
Vhttps://www.googleapis.com/compute/v1/projects/libcloud-221521/zones/asia-east2-b
p520
ssg17
Nsg60
g63
sg279
Vasia
p521
sg281
S'2371'
p522
sbag2
(g266
g4
Ntp523
Rp524
(dp525
g10
VUP
p526
sg271
Nsg52
Vasia-east2-a
p527
sg8
(dp528
g274
Vhttps://www.googleapis.com/compute/v1/projects/libcloud-221521/regions/asia-east2
p529
sg77
V1969-12-31T16:00:00.000-08:00
p530
sg79
Vasia-east2-a
p531
sg57
Vhttps://www.googleapis.com/compute/v1/projects/libcloud-221521/zones/asia-east2-a
p532
ssg17
Nsg60
g63
sg279
Vasia
p533
sg281
S'2372'
p534
sbasg281
S'1370'
p535
sbag2
(g70
g4
Ntp536
Rp537
(dp538
g10
VUP
p539
sg52
Vasia-northeast1
p540
sg8
(dp541
g77
V1969-12-31T16:00:00.000-08:00
p542
sg79
Vasia-northeast1
p543
sg57
Vhttps://www.googleapis.com/compute/v1/projects/libcloud-221521/regions/asia-northeast1
p544
ssg17
Nsg59
Nsg60
g63
sg82
(lp545
(dp546
Vusage
p547
F0.0
sVmetric
p548
VCPUS
p549
sVlimit
p550
F72.0
sa(dp551
Vusage
p552
F0.0
sVmetric
p553
VDISKS_TOTAL_GB
p554
sVlimit
p555
F40960.0
sa(dp556
Vusage
p557
F0.0
sVmetric
p558
VSTATIC_ADDRESSES
p559
sVlimit
p560
F21.0
sa(dp561
Vusage
p562
F0.0
sVmetric
p563
VIN_USE_ADDRESSES
p564
sVlimit
p565
F69.0
sa(dp566
Vusage
p567
F0.0
sVmetric
p568
VSSD_TOTAL_GB
p569
sVlimit
p570
F20480.0
sa(dp571
Vusage
p572
F0.0
sVmetric
p573
VLOCAL_SSD_TOTAL_GB
p574
sVlimit
p575
F20000.0
sa(dp576
Vusage
p577
F0.0
sVmetric
p578
VINSTANCE_GROUPS
p579
sVlimit
p580
F300.0
sa(dp581
Vusage
p582
F0.0
sVmetric
p583
VINSTANCE_GROUP_MANAGERS
p584
sVlimit
p585
F150.0
sa(dp586
Vusage
p587
F0.0
sVmetric
p588
VINSTANCES
p589
sVlimit
p590
F720.0
sa(dp591
Vusage
p592
F0.0
sVmetric
p593
VAUTOSCALERS
p594
sVlimit
p595
F150.0
sa(dp596
Vusage
p597
F0.0
sVmetric
p598
VREGIONAL_AUTOSCALERS
p599
sVlimit
p600
F100.0
sa(dp601
Vusage
p602
F0.0
sVmetric
p603
VREGIONAL_INSTANCE_GROUP_MANAGERS
p604
sVlimit
p605
F100.0
sa(dp606
Vusage
p607
F0.0
sVmetric
p608
VPREEMPTIBLE_CPUS
p609
sVlimit
p610
F0.0
sa(dp611
Vusage
p612
F0.0
sVmetric
p613
VNVIDIA_K80_GPUS
p614
sVlimit
p615
F8.0
sa(dp616
Vusage
p617
F0.0
sVmetric
p618
VCOMMITMENTS
p619
sVlimit
p620
F0.0
sa(dp621
Vusage
p622
F0.0
sVmetric
p623
VINTERNAL_ADDRESSES
p624
sVlimit
p625
F200.0
sa(dp626
Vusage
p627
F0.0
sVmetric
p628
VNVIDIA_P100_GPUS
p629
sVlimit
p630
F1.0
sa(dp631
Vusage
p632
F0.0
sVmetric
p633
VPREEMPTIBLE_LOCAL_SSD_GB
p634
sVlimit
p635
F0.0
sa(dp636
Vusage
p637
F0.0
sVmetric
p638
VPREEMPTIBLE_NVIDIA_K80_GPUS
p639
sVlimit
p640
F1.0
sa(dp641
Vusage
p642
F0.0
sVmetric
p643
VPREEMPTIBLE_NVIDIA_P100_GPUS
p644
sVlimit
p645
F1.0
sa(dp646
Vusage
p647
F0.0
sVmetric
p648
VNVIDIA_P100_VWS_GPUS
p649
sVlimit
p650
F1.0
sa(dp651
Vusage
p652
F0.0
sVmetric
p653
VNVIDIA_V100_GPUS
p654
sVlimit
p655
F1.0
sa(dp656
Vusage
p657
F0.0
sVmetric
p658
VNVIDIA_P4_GPUS
p659
sVlimit
p660
F1.0
sa(dp661
Vusage
p662
F0.0
sVmetric
p663
VNVIDIA_P4_VWS_GPUS
p664
sVlimit
p665
F1.0
sa(dp666
Vusage
p667
F0.0
sVmetric
p668
VPREEMPTIBLE_NVIDIA_V100_GPUS
p669
sVlimit
p670
F1.0
sa(dp671
Vusage
p672
F0.0
sVmetric
p673
VPREEMPTIBLE_NVIDIA_P4_GPUS
p674
sVlimit
p675
F1.0
sa(dp676
Vusage
p677
F0.0
sVmetric
p678
VPREEMPTIBLE_NVIDIA_P100_VWS_GPUS
p679
sVlimit
p680
F1.0
sa(dp681
Vusage
p682
F0.0
sVmetric
p683
VPREEMPTIBLE_NVIDIA_P4_VWS_GPUS
p684
sVlimit
p685
F1.0
sa(dp686
Vusage
p687
F0.0
sVmetric
p688
VINTERCONNECT_ATTACHMENTS_PER_REGION
p689
sVlimit
p690
F16.0
sa(dp691
Vusage
p692
F0.0
sVmetric
p693
VINTERCONNECT_ATTACHMENTS_TOTAL_MBPS
p694
sVlimit
p695
F80000.0
sa(dp696
Vusage
p697
F0.0
sVmetric
p698
VRESOURCE_POLICIES
p699
sVlimit
p700
F10.0
sa(dp701
Vusage
p702
F0.0
sVmetric
p703
VIN_USE_BACKUP_SCHEDULES
p704
sVlimit
p705
F50.0
sa(dp706
Vusage
p707
F0.0
sVmetric
p708
VNVIDIA_T4_GPUS
p709
sVlimit
p710
F1.0
sa(dp711
Vusage
p712
F0.0
sVmetric
p713
VNVIDIA_T4_VWS_GPUS
p714
sVlimit
p715
F1.0
sa(dp716
Vusage
p717
F0.0
sVmetric
p718
VPREEMPTIBLE_NVIDIA_T4_GPUS
p719
sVlimit
p720
F1.0
sa(dp721
Vusage
p722
F0.0
sVmetric
p723
VPREEMPTIBLE_NVIDIA_T4_VWS_GPUS
p724
sVlimit
p725
F1.0
sasg264
(lp726
g2
(g266
g4
Ntp727
Rp728
(dp729
g10
VUP
p730
sg271
Nsg52
Vasia-northeast1-a
p731
sg8
(dp732
g274
Vhttps://www.googleapis.com/compute/v1/projects/libcloud-221521/regions/asia-northeast1
p733
sg77
V1969-12-31T16:00:00.000-08:00
p734
sg79
Vasia-northeast1-a
p735
sg57
Vhttps://www.googleapis.com/compute/v1/projects/libcloud-221521/zones/asia-northeast1-a
p736
ssg17
Nsg60
g63
sg279
Vasia
p737
sg281
S'2250'
p738
sbag2
(g266
g4
Ntp739
Rp740
(dp741
g10
VUP
p742
sg271
Nsg52
Vasia-northeast1-b
p743
sg8
(dp744
g274
Vhttps://www.googleapis.com/compute/v1/projects/libcloud-221521/regions/asia-northeast1
p745
sg77
V1969-12-31T16:00:00.000-08:00
p746
sg79
Vasia-northeast1-b
p747
sg57
Vhttps://www.googleapis.com/compute/v1/projects/libcloud-221521/zones/asia-northeast1-b
p748
ssg17
Nsg60
g63
sg279
Vasia
p749
sg281
S'2251'
p750
sbag2
(g266
g4
Ntp751
Rp752
(dp753
g10
VUP
p754
sg271
Nsg52
Vasia-northeast1-c
p755
sg8
(dp756
g274
Vhttps://www.googleapis.com/compute/v1/projects/libcloud-221521/regions/asia-northeast1
p757
sg77
V1969-12-31T16:00:00.000-08:00
p758
sg79
Vasia-northeast1-c
p759
sg57
Vhttps://www.googleapis.com/compute/v1/projects/libcloud-221521/zones/asia-northeast1-c
p760
ssg17
Nsg60
g63
sg279
Vasia
p761
sg281
S'2252'
p762
sbasg281
S'1250'
p763
sbag2
(g70
g4
Ntp764
Rp765
(dp766
g10
VUP
p767
sg52
Vasia-south1
p768
sg8
(dp769
g77
V1969-12-31T16:00:00.000-08:00
p770
sg79
Vasia-south1
p771
sg57
Vhttps://www.googleapis.com/compute/v1/projects/libcloud-221521/regions/asia-south1
p772
ssg17
Nsg59
Nsg60
g63
sg82
(lp773
(dp774
Vusage
p775
F0.0
sVmetric
p776
VCPUS
p777
sVlimit
p778
F8.0
sa(dp779
Vusage
p780
F0.0
sVmetric
p781
VDISKS_TOTAL_GB
p782
sVlimit
p783
F2048.0
sa(dp784
Vusage
p785
F0.0
sVmetric
p786
VSTATIC_ADDRESSES
p787
sVlimit
p788
F1.0
sa(dp789
Vusage
p790
F0.0
sVmetric
p791
VIN_USE_ADDRESSES
p792
sVlimit
p793
F8.0
sa(dp794
Vusage
p795
F0.0
sVmetric
p796
VSSD_TOTAL_GB
p797
sVlimit
p798
F100.0
sa(dp799
Vusage
p800
F0.0
sVmetric
p801
VLOCAL_SSD_TOTAL_GB
p802
sVlimit
p803
F1500.0
sa(dp804
Vusage
p805
F0.0
sVmetric
p806
VINSTANCE_GROUPS
p807
sVlimit
p808
F100.0
sa(dp809
Vusage
p810
F0.0
sVmetric
p811
VINSTANCE_GROUP_MANAGERS
p812
sVlimit
p813
F50.0
sa(dp814
Vusage
p815
F0.0
sVmetric
p816
VINSTANCES
p817
sVlimit
p818
F80.0
sa(dp819
Vusage
p820
F0.0
sVmetric
p821
VAUTOSCALERS
p822
sVlimit
p823
F50.0
sa(dp824
Vusage
p825
F0.0
sVmetric
p826
VREGIONAL_AUTOSCALERS
p827
sVlimit
p828
F20.0
sa(dp829
Vusage
p830
F0.0
sVmetric
p831
VREGIONAL_INSTANCE_GROUP_MANAGERS
p832
sVlimit
p833
F20.0
sa(dp834
Vusage
p835
F0.0
sVmetric
p836
VPREEMPTIBLE_CPUS
p837
sVlimit
p838
F0.0
sa(dp839
Vusage
p840
F0.0
sVmetric
p841
VNVIDIA_K80_GPUS
p842
sVlimit
p843
F1.0
sa(dp844
Vusage
p845
F0.0
sVmetric
p846
VCOMMITMENTS
p847
sVlimit
p848
F0.0
sa(dp849
Vusage
p850
F0.0
sVmetric
p851
VINTERNAL_ADDRESSES
p852
sVlimit
p853
F200.0
sa(dp854
Vusage
p855
F0.0
sVmetric
p856
VNVIDIA_P100_GPUS
p857
sVlimit
p858
F1.0
sa(dp859
Vusage
p860
F0.0
sVmetric
p861
VPREEMPTIBLE_LOCAL_SSD_GB
p862
sVlimit
p863
F0.0
sa(dp864
Vusage
p865
F0.0
sVmetric
p866
VPREEMPTIBLE_NVIDIA_K80_GPUS
p867
sVlimit
p868
F1.0
sa(dp869
Vusage
p870
F0.0
sVmetric
p871
VPREEMPTIBLE_NVIDIA_P100_GPUS
p872
sVlimit
p873
F1.0
sa(dp874
Vusage
p875
F0.0
sVmetric
p876
VNVIDIA_P100_VWS_GPUS
p877
sVlimit
p878
F1.0
sa(dp879
Vusage
p880
F0.0
sVmetric
p881
VNVIDIA_V100_GPUS
p882
sVlimit
p883
F1.0
sa(dp884
Vusage
p885
F0.0
sVmetric
p886
VNVIDIA_P4_GPUS
p887
sVlimit
p888
F1.0
sa(dp889
Vusage
p890
F0.0
sVmetric
p891
VNVIDIA_P4_VWS_GPUS
p892
sVlimit
p893
F1.0
sa(dp894
Vusage
p895
F0.0
sVmetric
p896
VPREEMPTIBLE_NVIDIA_V100_GPUS
p897
sVlimit
p898
F1.0
sa(dp899
Vusage
p900
F0.0
sVmetric
p901
VPREEMPTIBLE_NVIDIA_P4_GPUS
p902
sVlimit
p903
F1.0
sa(dp904
Vusage
p905
F0.0
sVmetric
p906
VPREEMPTIBLE_NVIDIA_P100_VWS_GPUS
p907
sVlimit
p908
F1.0
sa(dp909
Vusage
p910
F0.0
sVmetric
p911
VPREEMPTIBLE_NVIDIA_P4_VWS_GPUS
p912
sVlimit
p913
F1.0
sa(dp914
Vusage
p915
F0.0
sVmetric
p916
VINTERCONNECT_ATTACHMENTS_PER_REGION
p917
sVlimit
p918
F16.0
sa(dp919
Vusage
p920
F0.0
sVmetric
p921
VINTERCONNECT_ATTACHMENTS_TOTAL_MBPS
p922
sVlimit
p923
F80000.0
sa(dp924
Vusage
p925
F0.0
sVmetric
p926
VRESOURCE_POLICIES
p927
sVlimit
p928
F5.0
sa(dp929
Vusage
p930
F0.0
sVmetric
p931
VIN_USE_BACKUP_SCHEDULES
p932
sVlimit
p933
F20.0
sa(dp934
Vusage
p935
F0.0
sVmetric
p936
VNVIDIA_T4_GPUS
p937
sVlimit
p938
F1.0
sa(dp939
Vusage
p940
F0.0
sVmetric
p941
VNVIDIA_T4_VWS_GPUS
p942
sVlimit
p943
F1.0
sa(dp944
Vusage
p945
F0.0
sVmetric
p946
VPREEMPTIBLE_NVIDIA_T4_GPUS
p947
sVlimit
p948
F1.0
sa(dp949
Vusage
p950
F0.0
sVmetric
p951
VPREEMPTIBLE_NVIDIA_T4_VWS_GPUS
p952
sVlimit
p953
F1.0
sasg264
(lp954
g2
(g266
g4
Ntp955
Rp956
(dp957
g10
VUP
p958
sg271
Nsg52
Vasia-south1-b
p959
sg8
(dp960
g274
Vhttps://www.googleapis.com/compute/v1/projects/libcloud-221521/regions/asia-south1
p961
sg77
V1969-12-31T16:00:00.000-08:00
p962
sg79
Vasia-south1-b
p963
sg57
Vhttps://www.googleapis.com/compute/v1/projects/libcloud-221521/zones/asia-south1-b
p964
ssg17
Nsg60
g63
sg279
Vasia
p965
sg281
S'2320'
p966
sbag2
(g266
g4
Ntp967
Rp968
(dp969
g10
VUP
p970
sg271
Nsg52
Vasia-south1-a
p971
sg8
(dp972
g274
Vhttps://www.googleapis.com/compute/v1/projects/libcloud-221521/regions/asia-south1
p973
sg77
V1969-12-31T16:00:00.000-08:00
p974
sg79
Vasia-south1-a
p975
sg57
Vhttps://www.googleapis.com/compute/v1/projects/libcloud-221521/zones/asia-south1-a
p976
ssg17
Nsg60
g63
sg279
Vasia
p977
sg281
S'2321'
p978
sbag2
(g266
g4
Ntp979
Rp980
(dp981
g10
VUP
p982
sg271
Nsg52
Vasia-south1-c
p983
sg8
(dp984
g274
Vhttps://www.googleapis.com/compute/v1/projects/libcloud-221521/regions/asia-south1
p985
sg77
V1969-12-31T16:00:00.000-08:00
p986
sg79
Vasia-south1-c
p987
sg57
Vhttps://www.googleapis.com/compute/v1/projects/libcloud-221521/zones/asia-south1-c
p988
ssg17
Nsg60
g63
sg279
Vasia
p989
sg281
S'2322'
p990
sbasg281
S'1320'
p991
sbag2
(g70
g4
Ntp992
Rp993
(dp994
g10
VUP
p995
sg52
Vasia-southeast1
p996
sg8
(dp997
g77
V1969-12-31T16:00:00.000-08:00
p998
sg79
Vasia-southeast1
p999
sg57
Vhttps://www.googleapis.com/compute/v1/projects/libcloud-221521/regions/asia-southeast1
p1000
ssg17
Nsg59
Nsg60
g63
sg82
(lp1001
(dp1002
Vusage
p1003
F0.0
sVmetric
p1004
VCPUS
p1005
sVlimit
p1006
F72.0
sa(dp1007
Vusage
p1008
F0.0
sVmetric
p1009
VDISKS_TOTAL_GB
p1010
sVlimit
p1011
F40960.0
sa(dp1012
Vusage
p1013
F0.0
sVmetric
p1014
VSTATIC_ADDRESSES
p1015
sVlimit
p1016
F21.0
sa(dp1017
Vusage
p1018
F0.0
sVmetric
p1019
VIN_USE_ADDRESSES
p1020
sVlimit
p1021
F69.0
sa(dp1022
Vusage
p1023
F0.0
sVmetric
p1024
VSSD_TOTAL_GB
p1025
sVlimit
p1026
F20480.0
sa(dp1027
Vusage
p1028
F0.0
sVmetric
p1029
VLOCAL_SSD_TOTAL_GB
p1030
sVlimit
p1031
F20000.0
sa(dp1032
Vusage
p1033
F0.0
sVmetric
p1034
VINSTANCE_GROUPS
p1035
sVlimit
p1036
F300.0
sa(dp1037
Vusage
p1038
F0.0
sVmetric
p1039
VINSTANCE_GROUP_MANAGERS
p1040
sVlimit
p1041
F150.0
sa(dp1042
Vusage
p1043
F0.0
sVmetric
p1044
VINSTANCES
p1045
sVlimit
p1046
F720.0
sa(dp1047
Vusage
p1048
F0.0
sVmetric
p1049
VAUTOSCALERS
p1050
sVlimit
p1051
F150.0
sa(dp1052
Vusage
p1053
F0.0
sVmetric
p1054
VREGIONAL_AUTOSCALERS
p1055
sVlimit
p1056
F100.0
sa(dp1057
Vusage
p1058
F0.0
sVmetric
p1059
VREGIONAL_INSTANCE_GROUP_MANAGERS
p1060
sVlimit
p1061
F100.0
sa(dp1062
Vusage
p1063
F0.0
sVmetric
p1064
VPREEMPTIBLE_CPUS
p1065
sVlimit
p1066
F0.0
sa(dp1067
Vusage
p1068
F0.0
sVmetric
p1069
VNVIDIA_K80_GPUS
p1070
sVlimit
p1071
F8.0
sa(dp1072
Vusage
p1073
F0.0
sVmetric
p1074
VCOMMITMENTS
p1075
sVlimit
p1076
F0.0
sa(dp1077
Vusage
p1078
F0.0
sVmetric
p1079
VINTERNAL_ADDRESSES
p1080
sVlimit
p1081
F200.0
sa(dp1082
Vusage
p1083
F0.0
sVmetric
p1084
VNVIDIA_P100_GPUS
p1085
sVlimit
p1086
F1.0
sa(dp1087
Vusage
p1088
F0.0
sVmetric
p1089
VPREEMPTIBLE_LOCAL_SSD_GB
p1090
sVlimit
p1091
F0.0
sa(dp1092
Vusage
p1093
F0.0
sVmetric
p1094
VPREEMPTIBLE_NVIDIA_K80_GPUS
p1095
sVlimit
p1096
F1.0
sa(dp1097
Vusage
p1098
F0.0
sVmetric
p1099
VPREEMPTIBLE_NVIDIA_P100_GPUS
p1100
sVlimit
p1101
F1.0
sa(dp1102
Vusage
p1103
F0.0
sVmetric
p1104
VNVIDIA_P100_VWS_GPUS
p1105
sVlimit
p1106
F1.0
sa(dp1107
Vusage
p1108
F0.0
sVmetric
p1109
VNVIDIA_V100_GPUS
p1110
sVlimit
p1111
F1.0
sa(dp1112
Vusage
p1113
F0.0
sVmetric
p1114
VNVIDIA_P4_GPUS
p1115
sVlimit
p1116
F1.0
sa(dp1117
Vusage
p1118
F0.0
sVmetric
p1119
VNVIDIA_P4_VWS_GPUS
p1120
sVlimit
p1121
F1.0
sa(dp1122
Vusage
p1123
F0.0
sVmetric
p1124
VPREEMPTIBLE_NVIDIA_V100_GPUS
p1125
sVlimit
p1126
F1.0
sa(dp1127
Vusage
p1128
F0.0
sVmetric
p1129
VPREEMPTIBLE_NVIDIA_P4_GPUS
p1130
sVlimit
p1131
F1.0
sa(dp1132
Vusage
p1133
F0.0
sVmetric
p1134
VPREEMPTIBLE_NVIDIA_P100_VWS_GPUS
p1135
sVlimit
p1136
F1.0
sa(dp1137
Vusage
p1138
F0.0
sVmetric
p1139
VPREEMPTIBLE_NVIDIA_P4_VWS_GPUS
p1140
sVlimit
p1141
F1.0
sa(dp1142
Vusage
p1143
F0.0
sVmetric
p1144
VINTERCONNECT_ATTACHMENTS_PER_REGION
p1145
sVlimit
p1146
F16.0
sa(dp1147
Vusage
p1148
F0.0
sVmetric
p1149
VINTERCONNECT_ATTACHMENTS_TOTAL_MBPS
p1150
sVlimit
p1151
F80000.0
sa(dp1152
Vusage
p1153
F0.0
sVmetric
p1154
VRESOURCE_POLICIES
p1155
sVlimit
p1156
F10.0
sa(dp1157
Vusage
p1158
F0.0
sVmetric
p1159
VIN_USE_BACKUP_SCHEDULES
p1160
sVlimit
p1161
F50.0
sa(dp1162
Vusage
p1163
F0.0
sVmetric
p1164
VNVIDIA_T4_GPUS
p1165
sVlimit
p1166
F1.0
sa(dp1167
Vusage
p1168
F0.0
sVmetric
p1169
VNVIDIA_T4_VWS_GPUS
p1170
sVlimit
p1171
F1.0
sa(dp1172
Vusage
p1173
F0.0
sVmetric
p1174
VPREEMPTIBLE_NVIDIA_T4_GPUS
p1175
sVlimit
p1176
F1.0
sa(dp1177
Vusage
p1178
F0.0
sVmetric
p1179
VPREEMPTIBLE_NVIDIA_T4_VWS_GPUS
p1180
sVlimit
p1181
F1.0
sasg264
(lp1182
g2
(g266
g4
Ntp1183
Rp1184
(dp1185
g10
VUP
p1186
sg271
Nsg52
Vasia-southeast1-a
p1187
sg8
(dp1188
g274
Vhttps://www.googleapis.com/compute/v1/projects/libcloud-221521/regions/asia-southeast1
p1189
sg77
V1969-12-31T16:00:00.000-08:00
p1190
sg79
Vasia-southeast1-a
p1191
sg57
Vhttps://www.googleapis.com/compute/v1/projects/libcloud-221521/zones/asia-southeast1-a
p1192
ssg17
Nsg60
g63
sg279
Vasia
p1193
sg281
S'2260'
p1194
sbag2
(g266
g4
Ntp1195
Rp1196
(dp1197
g10
VUP
p1198
sg271
Nsg52
Vasia-southeast1-b
p1199
sg8
(dp1200
g274
Vhttps://www.googleapis.com/compute/v1/projects/libcloud-221521/regions/asia-southeast1
p1201
sg77
V1969-12-31T16:00:00.000-08:00
p1202
sg79
Vasia-southeast1-b
p1203
sg57
Vhttps://www.googleapis.com/compute/v1/projects/libcloud-221521/zones/asia-southeast1-b
p1204
ssg17
Nsg60
g63
sg279
Vasia
p1205
sg281
S'2261'
p1206
sbag2
(g266
g4
Ntp1207
Rp1208
(dp1209
g10
VUP
p1210
sg271
Nsg52
Vasia-southeast1-c
p1211
sg8
(dp1212
g274
Vhttps://www.googleapis.com/compute/v1/projects/libcloud-221521/regions/asia-southeast1
p1213
sg77
V1969-12-31T16:00:00.000-08:00
p1214
sg79
Vasia-southeast1-c
p1215
sg57
Vhttps://www.googleapis.com/compute/v1/projects/libcloud-221521/zones/asia-southeast1-c
p1216
ssg17
Nsg60
g63
sg279
Vasia
p1217
sg281
S'2262'
p1218
sbasg281
S'1260'
p1219
sbag2
(g70
g4
Ntp1220
Rp1221
(dp1222
g10
VUP
p1223
sg52
Vaustralia-southeast1
p1224
sg8
(dp1225
g77
V1969-12-31T16:00:00.000-08:00
p1226
sg79
Vaustralia-southeast1
p1227
sg57
Vhttps://www.googleapis.com/compute/v1/projects/libcloud-221521/regions/australia-southeast1
p1228
ssg17
Nsg59
Nsg60
g63
sg82
(lp1229
(dp1230
Vusage
p1231
F0.0
sVmetric
p1232
VCPUS
p1233
sVlimit
p1234
F8.0
sa(dp1235
Vusage
p1236
F0.0
sVmetric
p1237
VDISKS_TOTAL_GB
p1238
sVlimit
p1239
F2048.0
sa(dp1240
Vusage
p1241
F0.0
sVmetric
p1242
VSTATIC_ADDRESSES
p1243
sVlimit
p1244
F1.0
sa(dp1245
Vusage
p1246
F0.0
sVmetric
p1247
VIN_USE_ADDRESSES
p1248
sVlimit
p1249
F8.0
sa(dp1250
Vusage
p1251
F0.0
sVmetric
p1252
VSSD_TOTAL_GB
p1253
sVlimit
p1254
F100.0
sa(dp1255
Vusage
p1256
F0.0
sVmetric
p1257
VLOCAL_SSD_TOTAL_GB
p1258
sVlimit
p1259
F1500.0
sa(dp1260
Vusage
p1261
F0.0
sVmetric
p1262
VINSTANCE_GROUPS
p1263
sVlimit
p1264
F100.0
sa(dp1265
Vusage
p1266
F0.0
sVmetric
p1267
VINSTANCE_GROUP_MANAGERS
p1268
sVlimit
p1269
F50.0
sa(dp1270
Vusage
p1271
F0.0
sVmetric
p1272
VINSTANCES
p1273
sVlimit
p1274
F80.0
sa(dp1275
Vusage
p1276
F0.0
sVmetric
p1277
VAUTOSCALERS
p1278
sVlimit
p1279
F50.0
sa(dp1280
Vusage
p1281
F0.0
sVmetric
p1282
VREGIONAL_AUTOSCALERS
p1283
sVlimit
p1284
F20.0
sa(dp1285
Vusage
p1286
F0.0
sVmetric
p1287
VREGIONAL_INSTANCE_GROUP_MANAGERS
p1288
sVlimit
p1289
F20.0
sa(dp1290
Vusage
p1291
F0.0
sVmetric
p1292
VPREEMPTIBLE_CPUS
p1293
sVlimit
p1294
F0.0
sa(dp1295
Vusage
p1296
F0.0
sVmetric
p1297
VNVIDIA_K80_GPUS
p1298
sVlimit
p1299
F1.0
sa(dp1300
Vusage
p1301
F0.0
sVmetric
p1302
VCOMMITMENTS
p1303
sVlimit
p1304
F0.0
sa(dp1305
Vusage
p1306
F0.0
sVmetric
p1307
VINTERNAL_ADDRESSES
p1308
sVlimit
p1309
F200.0
sa(dp1310
Vusage
p1311
F0.0
sVmetric
p1312
VNVIDIA_P100_GPUS
p1313
sVlimit
p1314
F1.0
sa(dp1315
Vusage
p1316
F0.0
sVmetric
p1317
VPREEMPTIBLE_LOCAL_SSD_GB
p1318
sVlimit
p1319
F0.0
sa(dp1320
Vusage
p1321
F0.0
sVmetric
p1322
VPREEMPTIBLE_NVIDIA_K80_GPUS
p1323
sVlimit
p1324
F1.0
sa(dp1325
Vusage
p1326
F0.0
sVmetric
p1327
VPREEMPTIBLE_NVIDIA_P100_GPUS
p1328
sVlimit
p1329
F1.0
sa(dp1330
Vusage
p1331
F0.0
sVmetric
p1332
VNVIDIA_P100_VWS_GPUS
p1333
sVlimit
p1334
F1.0
sa(dp1335
Vusage
p1336
F0.0
sVmetric
p1337
VNVIDIA_V100_GPUS
p1338
sVlimit
p1339
F1.0
sa(dp1340
Vusage
p1341
F0.0
sVmetric
p1342
VNVIDIA_P4_GPUS
p1343
sVlimit
p1344
F1.0
sa(dp1345
Vusage
p1346
F0.0
sVmetric
p1347
VNVIDIA_P4_VWS_GPUS
p1348
sVlimit
p1349
F1.0
sa(dp1350
Vusage
p1351
F0.0
sVmetric
p1352
VPREEMPTIBLE_NVIDIA_V100_GPUS
p1353
sVlimit
p1354
F1.0
sa(dp1355
Vusage
p1356
F0.0
sVmetric
p1357
VPREEMPTIBLE_NVIDIA_P4_GPUS
p1358
sVlimit
p1359
F1.0
sa(dp1360
Vusage
p1361
F0.0
sVmetric
p1362
VPREEMPTIBLE_NVIDIA_P100_VWS_GPUS
p1363
sVlimit
p1364
F1.0
sa(dp1365
Vusage
p1366
F0.0
sVmetric
p1367
VPREEMPTIBLE_NVIDIA_P4_VWS_GPUS
p1368
sVlimit
p1369
F1.0
sa(dp1370
Vusage
p1371
F0.0
sVmetric
p1372
VINTERCONNECT_ATTACHMENTS_PER_REGION
p1373
sVlimit
p1374
F16.0
sa(dp1375
Vusage
p1376
F0.0
sVmetric
p1377
VINTERCONNECT_ATTACHMENTS_TOTAL_MBPS
p1378
sVlimit
p1379
F80000.0
sa(dp1380
Vusage
p1381
F0.0
sVmetric
p1382
VRESOURCE_POLICIES
p1383
sVlimit
p1384
F5.0
sa(dp1385
Vusage
p1386
F0.0
sVmetric
p1387
VIN_USE_BACKUP_SCHEDULES
p1388
sVlimit
p1389
F20.0
sa(dp1390
Vusage
p1391
F0.0
sVmetric
p1392
VNVIDIA_T4_GPUS
p1393
sVlimit
p1394
F1.0
sa(dp1395
Vusage
p1396
F0.0
sVmetric
p1397
VNVIDIA_T4_VWS_GPUS
p1398
sVlimit
p1399
F1.0
sa(dp1400
Vusage
p1401
F0.0
sVmetric
p1402
VPREEMPTIBLE_NVIDIA_T4_GPUS
p1403
sVlimit
p1404
F1.0
sa(dp1405
Vusage
p1406
F0.0
sVmetric
p1407
VPREEMPTIBLE_NVIDIA_T4_VWS_GPUS
p1408
sVlimit
p1409
F1.0
sasg264
(lp1410
g2
(g266
g4
Ntp1411
Rp1412
(dp1413
g10
VUP
p1414
sg271
Nsg52
Vaustralia-southeast1-c
p1415
sg8
(dp1416
g274
Vhttps://www.googleapis.com/compute/v1/projects/libcloud-221521/regions/australia-southeast1
p1417
sg77
V1969-12-31T16:00:00.000-08:00
p1418
sg79
Vaustralia-southeast1-c
p1419
sg57
Vhttps://www.googleapis.com/compute/v1/projects/libcloud-221521/zones/australia-southeast1-c
p1420
ssg17
Nsg60
g63
sg279
Vaustralia
p1421
sg281
S'2280'
p1422
sbag2
(g266
g4
Ntp1423
Rp1424
(dp1425
g10
VUP
p1426
sg271
Nsg52
Vaustralia-southeast1-a
p1427
sg8
(dp1428
g274
Vhttps://www.googleapis.com/compute/v1/projects/libcloud-221521/regions/australia-southeast1
p1429
sg77
V1969-12-31T16:00:00.000-08:00
p1430
sg79
Vaustralia-southeast1-a
p1431
sg57
Vhttps://www.googleapis.com/compute/v1/projects/libcloud-221521/zones/australia-southeast1-a
p1432
ssg17
Nsg60
g63
sg279
Vaustralia
p1433
sg281
S'2281'
p1434
sbag2
(g266
g4
Ntp1435
Rp1436
(dp1437
g10
VUP
p1438
sg271
Nsg52
Vaustralia-southeast1-b
p1439
sg8
(dp1440
g274
Vhttps://www.googleapis.com/compute/v1/projects/libcloud-221521/regions/australia-southeast1
p1441
sg77
V1969-12-31T16:00:00.000-08:00
p1442
sg79
Vaustralia-southeast1-b
p1443
sg57
Vhttps://www.googleapis.com/compute/v1/projects/libcloud-221521/zones/australia-southeast1-b
p1444
ssg17
Nsg60
g63
sg279
Vaustralia
p1445
sg281
S'2282'
p1446
sbasg281
S'1280'
p1447
sbag2
(g70
g4
Ntp1448
Rp1449
(dp1450
g10
VUP
p1451
sg52
Veurope-north1
p1452
sg8
(dp1453
g77
V1969-12-31T16:00:00.000-08:00
p1454
sg79
Veurope-north1
p1455
sg57
Vhttps://www.googleapis.com/compute/v1/projects/libcloud-221521/regions/europe-north1
p1456
ssg17
Nsg59
Nsg60
g63
sg82
(lp1457
(dp1458
Vusage
p1459
F0.0
sVmetric
p1460
VCPUS
p1461
sVlimit
p1462
F8.0
sa(dp1463
Vusage
p1464
F0.0
sVmetric
p1465
VDISKS_TOTAL_GB
p1466
sVlimit
p1467
F2048.0
sa(dp1468
Vusage
p1469
F0.0
sVmetric
p1470
VSTATIC_ADDRESSES
p1471
sVlimit
p1472
F1.0
sa(dp1473
Vusage
p1474
F0.0
sVmetric
p1475
VIN_USE_ADDRESSES
p1476
sVlimit
p1477
F8.0
sa(dp1478
Vusage
p1479
F0.0
sVmetric
p1480
VSSD_TOTAL_GB
p1481
sVlimit
p1482
F100.0
sa(dp1483
Vusage
p1484
F0.0
sVmetric
p1485
VLOCAL_SSD_TOTAL_GB
p1486
sVlimit
p1487
F1500.0
sa(dp1488
Vusage
p1489
F0.0
sVmetric
p1490
VINSTANCE_GROUPS
p1491
sVlimit
p1492
F100.0
sa(dp1493
Vusage
p1494
F0.0
sVmetric
p1495
VINSTANCE_GROUP_MANAGERS
p1496
sVlimit
p1497
F50.0
sa(dp1498
Vusage
p1499
F0.0
sVmetric
p1500
VINSTANCES
p1501
sVlimit
p1502
F80.0
sa(dp1503
Vusage
p1504
F0.0
sVmetric
p1505
VAUTOSCALERS
p1506
sVlimit
p1507
F50.0
sa(dp1508
Vusage
p1509
F0.0
sVmetric
p1510
VREGIONAL_AUTOSCALERS
p1511
sVlimit
p1512
F20.0
sa(dp1513
Vusage
p1514
F0.0
sVmetric
p1515
VREGIONAL_INSTANCE_GROUP_MANAGERS
p1516
sVlimit
p1517
F20.0
sa(dp1518
Vusage
p1519
F0.0
sVmetric
p1520
VPREEMPTIBLE_CPUS
p1521
sVlimit
p1522
F0.0
sa(dp1523
Vusage
p1524
F0.0
sVmetric
p1525
VNVIDIA_K80_GPUS
p1526
sVlimit
p1527
F1.0
sa(dp1528
Vusage
p1529
F0.0
sVmetric
p1530
VCOMMITMENTS
p1531
sVlimit
p1532
F0.0
sa(dp1533
Vusage
p1534
F0.0
sVmetric
p1535
VINTERNAL_ADDRESSES
p1536
sVlimit
p1537
F200.0
sa(dp1538
Vusage
p1539
F0.0
sVmetric
p1540
VNVIDIA_P100_GPUS
p1541
sVlimit
p1542
F1.0
sa(dp1543
Vusage
p1544
F0.0
sVmetric
p1545
VPREEMPTIBLE_LOCAL_SSD_GB
p1546
sVlimit
p1547
F0.0
sa(dp1548
Vusage
p1549
F0.0
sVmetric
p1550
VPREEMPTIBLE_NVIDIA_K80_GPUS
p1551
sVlimit
p1552
F1.0
sa(dp1553
Vusage
p1554
F0.0
sVmetric
p1555
VPREEMPTIBLE_NVIDIA_P100_GPUS
p1556
sVlimit
p1557
F1.0
sa(dp1558
Vusage
p1559
F0.0
sVmetric
p1560
VNVIDIA_P100_VWS_GPUS
p1561
sVlimit
p1562
F1.0
sa(dp1563
Vusage
p1564
F0.0
sVmetric
p1565
VNVIDIA_V100_GPUS
p1566
sVlimit
p1567
F1.0
sa(dp1568
Vusage
p1569
F0.0
sVmetric
p1570
VNVIDIA_P4_GPUS
p1571
sVlimit
p1572
F1.0
sa(dp1573
Vusage
p1574
F0.0
sVmetric
p1575
VNVIDIA_P4_VWS_GPUS
p1576
sVlimit
p1577
F1.0
sa(dp1578
Vusage
p1579
F0.0
sVmetric
p1580
VPREEMPTIBLE_NVIDIA_V100_GPUS
p1581
sVlimit
p1582
F1.0
sa(dp1583
Vusage
p1584
F0.0
sVmetric
p1585
VPREEMPTIBLE_NVIDIA_P4_GPUS
p1586
sVlimit
p1587
F1.0
sa(dp1588
Vusage
p1589
F0.0
sVmetric
p1590
VPREEMPTIBLE_NVIDIA_P100_VWS_GPUS
p1591
sVlimit
p1592
F1.0
sa(dp1593
Vusage
p1594
F0.0
sVmetric
p1595
VPREEMPTIBLE_NVIDIA_P4_VWS_GPUS
p1596
sVlimit
p1597
F1.0
sa(dp1598
Vusage
p1599
F0.0
sVmetric
p1600
VINTERCONNECT_ATTACHMENTS_PER_REGION
p1601
sVlimit
p1602
F16.0
sa(dp1603
Vusage
p1604
F0.0
sVmetric
p1605
VINTERCONNECT_ATTACHMENTS_TOTAL_MBPS
p1606
sVlimit
p1607
F80000.0
sa(dp1608
Vusage
p1609
F0.0
sVmetric
p1610
VRESOURCE_POLICIES
p1611
sVlimit
p1612
F5.0
sa(dp1613
Vusage
p1614
F0.0
sVmetric
p1615
VIN_USE_BACKUP_SCHEDULES
p1616
sVlimit
p1617
F20.0
sa(dp1618
Vusage
p1619
F0.0
sVmetric
p1620
VNVIDIA_T4_GPUS
p1621
sVlimit
p1622
F1.0
sa(dp1623
Vusage
p1624
F0.0
sVmetric
p1625
VNVIDIA_T4_VWS_GPUS
p1626
sVlimit
p1627
F1.0
sa(dp1628
Vusage
p1629
F0.0
sVmetric
p1630
VPREEMPTIBLE_NVIDIA_T4_GPUS
p1631
sVlimit
p1632
F1.0
sa(dp1633
Vusage
p1634
F0.0
sVmetric
p1635
VPREEMPTIBLE_NVIDIA_T4_VWS_GPUS
p1636
sVlimit
p1637
F1.0
sasg264
(lp1638
g2
(g266
g4
Ntp1639
Rp1640
(dp1641
g10
VUP
p1642
sg271
Nsg52
Veurope-north1-b
p1643
sg8
(dp1644
g274
Vhttps://www.googleapis.com/compute/v1/projects/libcloud-221521/regions/europe-north1
p1645
sg77
V1969-12-31T16:00:00.000-08:00
p1646
sg79
Veurope-north1-b
p1647
sg57
Vhttps://www.googleapis.com/compute/v1/projects/libcloud-221521/zones/europe-north1-b
p1648
ssg17
Nsg60
g63
sg279
Veurope
p1649
sg281
S'2350'
p1650
sbag2
(g266
g4
Ntp1651
Rp1652
(dp1653
g10
VUP
p1654
sg271
Nsg52
Veurope-north1-c
p1655
sg8
(dp1656
g274
Vhttps://www.googleapis.com/compute/v1/projects/libcloud-221521/regions/europe-north1
p1657
sg77
V1969-12-31T16:00:00.000-08:00
p1658
sg79
Veurope-north1-c
p1659
sg57
Vhttps://www.googleapis.com/compute/v1/projects/libcloud-221521/zones/europe-north1-c
p1660
ssg17
Nsg60
g63
sg279
Veurope
p1661
sg281
S'2351'
p1662
sbag2
(g266
g4
Ntp1663
Rp1664
(dp1665
g10
VUP
p1666
sg271
Nsg52
Veurope-north1-a
p1667
sg8
(dp1668
g274
Vhttps://www.googleapis.com/compute/v1/projects/libcloud-221521/regions/europe-north1
p1669
sg77
V1969-12-31T16:00:00.000-08:00
p1670
sg79
Veurope-north1-a
p1671
sg57
Vhttps://www.googleapis.com/compute/v1/projects/libcloud-221521/zones/europe-north1-a
p1672
ssg17
Nsg60
g63
sg279
Veurope
p1673
sg281
S'2352'
p1674
sbasg281
S'1350'
p1675
sbag2
(g70
g4
Ntp1676
Rp1677
(dp1678
g10
VUP
p1679
sg52
Veurope-west1
p1680
sg8
(dp1681
g77
V1969-12-31T16:00:00.000-08:00
p1682
sg79
Veurope-west1
p1683
sg57
Vhttps://www.googleapis.com/compute/v1/projects/libcloud-221521/regions/europe-west1
p1684
ssg17
Nsg59
Nsg60
g63
sg82
(lp1685
(dp1686
Vusage
p1687
F0.0
sVmetric
p1688
VCPUS
p1689
sVlimit
p1690
F72.0
sa(dp1691
Vusage
p1692
F0.0
sVmetric
p1693
VDISKS_TOTAL_GB
p1694
sVlimit
p1695
F40960.0
sa(dp1696
Vusage
p1697
F0.0
sVmetric
p1698
VSTATIC_ADDRESSES
p1699
sVlimit
p1700
F21.0
sa(dp1701
Vusage
p1702
F0.0
sVmetric
p1703
VIN_USE_ADDRESSES
p1704
sVlimit
p1705
F69.0
sa(dp1706
Vusage
p1707
F0.0
sVmetric
p1708
VSSD_TOTAL_GB
p1709
sVlimit
p1710
F20480.0
sa(dp1711
Vusage
p1712
F0.0
sVmetric
p1713
VLOCAL_SSD_TOTAL_GB
p1714
sVlimit
p1715
F20000.0
sa(dp1716
Vusage
p1717
F0.0
sVmetric
p1718
VINSTANCE_GROUPS
p1719
sVlimit
p1720
F300.0
sa(dp1721
Vusage
p1722
F0.0
sVmetric
p1723
VINSTANCE_GROUP_MANAGERS
p1724
sVlimit
p1725
F150.0
sa(dp1726
Vusage
p1727
F0.0
sVmetric
p1728
VINSTANCES
p1729
sVlimit
p1730
F720.0
sa(dp1731
Vusage
p1732
F0.0
sVmetric
p1733
VAUTOSCALERS
p1734
sVlimit
p1735
F150.0
sa(dp1736
Vusage
p1737
F0.0
sVmetric
p1738
VREGIONAL_AUTOSCALERS
p1739
sVlimit
p1740
F100.0
sa(dp1741
Vusage
p1742
F0.0
sVmetric
p1743
VREGIONAL_INSTANCE_GROUP_MANAGERS
p1744
sVlimit
p1745
F100.0
sa(dp1746
Vusage
p1747
F0.0
sVmetric
p1748
VPREEMPTIBLE_CPUS
p1749
sVlimit
p1750
F0.0
sa(dp1751
Vusage
p1752
F0.0
sVmetric
p1753
VNVIDIA_K80_GPUS
p1754
sVlimit
p1755
F8.0
sa(dp1756
Vusage
p1757
F0.0
sVmetric
p1758
VCOMMITMENTS
p1759
sVlimit
p1760
F0.0
sa(dp1761
Vusage
p1762
F0.0
sVmetric
p1763
VINTERNAL_ADDRESSES
p1764
sVlimit
p1765
F200.0
sa(dp1766
Vusage
p1767
F0.0
sVmetric
p1768
VNVIDIA_P100_GPUS
p1769
sVlimit
p1770
F1.0
sa(dp1771
Vusage
p1772
F0.0
sVmetric
p1773
VPREEMPTIBLE_LOCAL_SSD_GB
p1774
sVlimit
p1775
F0.0
sa(dp1776
Vusage
p1777
F0.0
sVmetric
p1778
VPREEMPTIBLE_NVIDIA_K80_GPUS
p1779
sVlimit
p1780
F1.0
sa(dp1781
Vusage
p1782
F0.0
sVmetric
p1783
VPREEMPTIBLE_NVIDIA_P100_GPUS
p1784
sVlimit
p1785
F1.0
sa(dp1786
Vusage
p1787
F0.0
sVmetric
p1788
VNVIDIA_P100_VWS_GPUS
p1789
sVlimit
p1790
F1.0
sa(dp1791
Vusage
p1792
F0.0
sVmetric
p1793
VNVIDIA_V100_GPUS
p1794
sVlimit
p1795
F1.0
sa(dp1796
Vusage
p1797
F0.0
sVmetric
p1798
VNVIDIA_P4_GPUS
p1799
sVlimit
p1800
F1.0
sa(dp1801
Vusage
p1802
F0.0
sVmetric
p1803
VNVIDIA_P4_VWS_GPUS
p1804
sVlimit
p1805
F1.0
sa(dp1806
Vusage
p1807
F0.0
sVmetric
p1808
VPREEMPTIBLE_NVIDIA_V100_GPUS
p1809
sVlimit
p1810
F1.0
sa(dp1811
Vusage
p1812
F0.0
sVmetric
p1813
VPREEMPTIBLE_NVIDIA_P4_GPUS
p1814
sVlimit
p1815
F1.0
sa(dp1816
Vusage
p1817
F0.0
sVmetric
p1818
VPREEMPTIBLE_NVIDIA_P100_VWS_GPUS
p1819
sVlimit
p1820
F1.0
sa(dp1821
Vusage
p1822
F0.0
sVmetric
p1823
VPREEMPTIBLE_NVIDIA_P4_VWS_GPUS
p1824
sVlimit
p1825
F1.0
sa(dp1826
Vusage
p1827
F0.0
sVmetric
p1828
VINTERCONNECT_ATTACHMENTS_PER_REGION
p1829
sVlimit
p1830
F16.0
sa(dp1831
Vusage
p1832
F0.0
sVmetric
p1833
VINTERCONNECT_ATTACHMENTS_TOTAL_MBPS
p1834
sVlimit
p1835
F80000.0
sa(dp1836
Vusage
p1837
F0.0
sVmetric
p1838
VRESOURCE_POLICIES
p1839
sVlimit
p1840
F10.0
sa(dp1841
Vusage
p1842
F0.0
sVmetric
p1843
VIN_USE_BACKUP_SCHEDULES
p1844
sVlimit
p1845
F50.0
sa(dp1846
Vusage
p1847
F0.0
sVmetric
p1848
VNVIDIA_T4_GPUS
p1849
sVlimit
p1850
F1.0
sa(dp1851
Vusage
p1852
F0.0
sVmetric
p1853
VNVIDIA_T4_VWS_GPUS
p1854
sVlimit
p1855
F1.0
sa(dp1856
Vusage
p1857
F0.0
sVmetric
p1858
VPREEMPTIBLE_NVIDIA_T4_GPUS
p1859
sVlimit
p1860
F1.0
sa(dp1861
Vusage
p1862
F0.0
sVmetric
p1863
VPREEMPTIBLE_NVIDIA_T4_VWS_GPUS
p1864
sVlimit
p1865
F1.0
sasg264
(lp1866
g2
(g266
g4
Ntp1867
Rp1868
(dp1869
g10
VUP
p1870
sg271
Nsg52
Veurope-west1-b
p1871
sg8
(dp1872
g274
Vhttps://www.googleapis.com/compute/v1/projects/libcloud-221521/regions/europe-west1
p1873
sg77
V1969-12-31T16:00:00.000-08:00
p1874
sg79
Veurope-west1-b
p1875
sg57
Vhttps://www.googleapis.com/compute/v1/projects/libcloud-221521/zones/europe-west1-b
p1876
ssg17
Nsg60
g63
sg279
Veurope
p1877
sg281
S'2101'
p1878
sbag2
(g266
g4
Ntp1879
Rp1880
(dp1881
g10
VUP
p1882
sg271
Nsg52
Veurope-west1-c
p1883
sg8
(dp1884
g274
Vhttps://www.googleapis.com/compute/v1/projects/libcloud-221521/regions/europe-west1
p1885
sg77
V1969-12-31T16:00:00.000-08:00
p1886
sg79
Veurope-west1-c
p1887
sg57
Vhttps://www.googleapis.com/compute/v1/projects/libcloud-221521/zones/europe-west1-c
p1888
ssg17
Nsg60
g63
sg279
Veurope
p1889
sg281
S'2103'
p1890
sbag2
(g266
g4
Ntp1891
Rp1892
(dp1893
g10
VUP
p1894
sg271
Nsg52
Veurope-west1-d
p1895
sg8
(dp1896
g274
Vhttps://www.googleapis.com/compute/v1/projects/libcloud-221521/regions/europe-west1
p1897
sg77
V1969-12-31T16:00:00.000-08:00
p1898
sg79
Veurope-west1-d
p1899
sg57
Vhttps://www.googleapis.com/compute/v1/projects/libcloud-221521/zones/europe-west1-d
p1900
ssg17
Nsg60
g63
sg279
Veurope
p1901
sg281
S'2104'
p1902
sbasg281
S'1100'
p1903
sbag2
(g70
g4
Ntp1904
Rp1905
(dp1906
g10
VUP
p1907
sg52
Veurope-west2
p1908
sg8
(dp1909
g77
V1969-12-31T16:00:00.000-08:00
p1910
sg79
Veurope-west2
p1911
sg57
Vhttps://www.googleapis.com/compute/v1/projects/libcloud-221521/regions/europe-west2
p1912
ssg17
Nsg59
Nsg60
g63
sg82
(lp1913
(dp1914
Vusage
p1915
F0.0
sVmetric
p1916
VCPUS
p1917
sVlimit
p1918
F8.0
sa(dp1919
Vusage
p1920
F0.0
sVmetric
p1921
VDISKS_TOTAL_GB
p1922
sVlimit
p1923
F2048.0
sa(dp1924
Vusage
p1925
F0.0
sVmetric
p1926
VSTATIC_ADDRESSES
p1927
sVlimit
p1928
F1.0
sa(dp1929
Vusage
p1930
F0.0
sVmetric
p1931
VIN_USE_ADDRESSES
p1932
sVlimit
p1933
F8.0
sa(dp1934
Vusage
p1935
F0.0
sVmetric
p1936
VSSD_TOTAL_GB
p1937
sVlimit
p1938
F100.0
sa(dp1939
Vusage
p1940
F0.0
sVmetric
p1941
VLOCAL_SSD_TOTAL_GB
p1942
sVlimit
p1943
F1500.0
sa(dp1944
Vusage
p1945
F0.0
sVmetric
p1946
VINSTANCE_GROUPS
p1947
sVlimit
p1948
F100.0
sa(dp1949
Vusage
p1950
F0.0
sVmetric
p1951
VINSTANCE_GROUP_MANAGERS
p1952
sVlimit
p1953
F50.0
sa(dp1954
Vusage
p1955
F0.0
sVmetric
p1956
VINSTANCES
p1957
sVlimit
p1958
F80.0
sa(dp1959
Vusage
p1960
F0.0
sVmetric
p1961
VAUTOSCALERS
p1962
sVlimit
p1963
F50.0
sa(dp1964
Vusage
p1965
F0.0
sVmetric
p1966
VREGIONAL_AUTOSCALERS
p1967
sVlimit
p1968
F20.0
sa(dp1969
Vusage
p1970
F0.0
sVmetric
p1971
VREGIONAL_INSTANCE_GROUP_MANAGERS
p1972
sVlimit
p1973
F20.0
sa(dp1974
Vusage
p1975
F0.0
sVmetric
p1976
VPREEMPTIBLE_CPUS
p1977
sVlimit
p1978
F0.0
sa(dp1979
Vusage
p1980
F0.0
sVmetric
p1981
VNVIDIA_K80_GPUS
p1982
sVlimit
p1983
F1.0
sa(dp1984
Vusage
p1985
F0.0
sVmetric
p1986
VCOMMITMENTS
p1987
sVlimit
p1988
F0.0
sa(dp1989
Vusage
p1990
F0.0
sVmetric
p1991
VINTERNAL_ADDRESSES
p1992
sVlimit
p1993
F200.0
sa(dp1994
Vusage
p1995
F0.0
sVmetric
p1996
VNVIDIA_P100_GPUS
p1997
sVlimit
p1998
F1.0
sa(dp1999
Vusage
p2000
F0.0
sVmetric
p2001
VPREEMPTIBLE_LOCAL_SSD_GB
p2002
sVlimit
p2003
F0.0
sa(dp2004
Vusage
p2005
F0.0
sVmetric
p2006
VPREEMPTIBLE_NVIDIA_K80_GPUS
p2007
sVlimit
p2008
F1.0
sa(dp2009
Vusage
p2010
F0.0
sVmetric
p2011
VPREEMPTIBLE_NVIDIA_P100_GPUS
p2012
sVlimit
p2013
F1.0
sa(dp2014
Vusage
p2015
F0.0
sVmetric
p2016
VNVIDIA_P100_VWS_GPUS
p2017
sVlimit
p2018
F1.0
sa(dp2019
Vusage
p2020
F0.0
sVmetric
p2021
VNVIDIA_V100_GPUS
p2022
sVlimit
p2023
F1.0
sa(dp2024
Vusage
p2025
F0.0
sVmetric
p2026
VNVIDIA_P4_GPUS
p2027
sVlimit
p2028
F1.0
sa(dp2029
Vusage
p2030
F0.0
sVmetric
p2031
VNVIDIA_P4_VWS_GPUS
p2032
sVlimit
p2033
F1.0
sa(dp2034
Vusage
p2035
F0.0
sVmetric
p2036
VPREEMPTIBLE_NVIDIA_V100_GPUS
p2037
sVlimit
p2038
F1.0
sa(dp2039
Vusage
p2040
F0.0
sVmetric
p2041
VPREEMPTIBLE_NVIDIA_P4_GPUS
p2042
sVlimit
p2043
F1.0
sa(dp2044
Vusage
p2045
F0.0
sVmetric
p2046
VPREEMPTIBLE_NVIDIA_P100_VWS_GPUS
p2047
sVlimit
p2048
F1.0
sa(dp2049
Vusage
p2050
F0.0
sVmetric
p2051
VPREEMPTIBLE_NVIDIA_P4_VWS_GPUS
p2052
sVlimit
p2053
F1.0
sa(dp2054
Vusage
p2055
F0.0
sVmetric
p2056
VINTERCONNECT_ATTACHMENTS_PER_REGION
p2057
sVlimit
p2058
F16.0
sa(dp2059
Vusage
p2060
F0.0
sVmetric
p2061
VINTERCONNECT_ATTACHMENTS_TOTAL_MBPS
p2062
sVlimit
p2063
F80000.0
sa(dp2064
Vusage
p2065
F0.0
sVmetric
p2066
VRESOURCE_POLICIES
p2067
sVlimit
p2068
F5.0
sa(dp2069
Vusage
p2070
F0.0
sVmetric
p2071
VIN_USE_BACKUP_SCHEDULES
p2072
sVlimit
p2073
F20.0
sa(dp2074
Vusage
p2075
F0.0
sVmetric
p2076
VNVIDIA_T4_GPUS
p2077
sVlimit
p2078
F1.0
sa(dp2079
Vusage
p2080
F0.0
sVmetric
p2081
VNVIDIA_T4_VWS_GPUS
p2082
sVlimit
p2083
F1.0
sa(dp2084
Vusage
p2085
F0.0
sVmetric
p2086
VPREEMPTIBLE_NVIDIA_T4_GPUS
p2087
sVlimit
p2088
F1.0
sa(dp2089
Vusage
p2090
F0.0
sVmetric
p2091
VPREEMPTIBLE_NVIDIA_T4_VWS_GPUS
p2092
sVlimit
p2093
F1.0
sasg264
(lp2094
g2
(g266
g4
Ntp2095
Rp2096
(dp2097
g10
VUP
p2098
sg271
Nsg52
Veurope-west2-a
p2099
sg8
(dp2100
g274
Vhttps://www.googleapis.com/compute/v1/projects/libcloud-221521/regions/europe-west2
p2101
sg77
V1969-12-31T16:00:00.000-08:00
p2102
sg79
Veurope-west2-a
p2103
sg57
Vhttps://www.googleapis.com/compute/v1/projects/libcloud-221521/zones/europe-west2-a
p2104
ssg17
Nsg60
g63
sg279
Veurope
p2105
sg281
S'2290'
p2106
sbag2
(g266
g4
Ntp2107
Rp2108
(dp2109
g10
VUP
p2110
sg271
Nsg52
Veurope-west2-b
p2111
sg8
(dp2112
g274
Vhttps://www.googleapis.com/compute/v1/projects/libcloud-221521/regions/europe-west2
p2113
sg77
V1969-12-31T16:00:00.000-08:00
p2114
sg79
Veurope-west2-b
p2115
sg57
Vhttps://www.googleapis.com/compute/v1/projects/libcloud-221521/zones/europe-west2-b
p2116
ssg17
Nsg60
g63
sg279
Veurope
p2117
sg281
S'2291'
p2118
sbag2
(g266
g4
Ntp2119
Rp2120
(dp2121
g10
VUP
p2122
sg271
Nsg52
Veurope-west2-c
p2123
sg8
(dp2124
g274
Vhttps://www.googleapis.com/compute/v1/projects/libcloud-221521/regions/europe-west2
p2125
sg77
V1969-12-31T16:00:00.000-08:00
p2126
sg79
Veurope-west2-c
p2127
sg57
Vhttps://www.googleapis.com/compute/v1/projects/libcloud-221521/zones/europe-west2-c
p2128
ssg17
Nsg60
g63
sg279
Veurope
p2129
sg281
S'2292'
p2130
sbasg281
S'1290'
p2131
sbag2
(g70
g4
Ntp2132
Rp2133
(dp2134
g10
VUP
p2135
sg52
Veurope-west3
p2136
sg8
(dp2137
g77
V1969-12-31T16:00:00.000-08:00
p2138
sg79
Veurope-west3
p2139
sg57
Vhttps://www.googleapis.com/compute/v1/projects/libcloud-221521/regions/europe-west3
p2140
ssg17
Nsg59
Nsg60
g63
sg82
(lp2141
(dp2142
Vusage
p2143
F0.0
sVmetric
p2144
VCPUS
p2145
sVlimit
p2146
F8.0
sa(dp2147
Vusage
p2148
F0.0
sVmetric
p2149
VDISKS_TOTAL_GB
p2150
sVlimit
p2151
F2048.0
sa(dp2152
Vusage
p2153
F0.0
sVmetric
p2154
VSTATIC_ADDRESSES
p2155
sVlimit
p2156
F1.0
sa(dp2157
Vusage
p2158
F0.0
sVmetric
p2159
VIN_USE_ADDRESSES
p2160
sVlimit
p2161
F8.0
sa(dp2162
Vusage
p2163
F0.0
sVmetric
p2164
VSSD_TOTAL_GB
p2165
sVlimit
p2166
F100.0
sa(dp2167
Vusage
p2168
F0.0
sVmetric
p2169
VLOCAL_SSD_TOTAL_GB
p2170
sVlimit
p2171
F1500.0
sa(dp2172
Vusage
p2173
F0.0
sVmetric
p2174
VINSTANCE_GROUPS
p2175
sVlimit
p2176
F100.0
sa(dp2177
Vusage
p2178
F0.0
sVmetric
p2179
VINSTANCE_GROUP_MANAGERS
p2180
sVlimit
p2181
F50.0
sa(dp2182
Vusage
p2183
F0.0
sVmetric
p2184
VINSTANCES
p2185
sVlimit
p2186
F80.0
sa(dp2187
Vusage
p2188
F0.0
sVmetric
p2189
VAUTOSCALERS
p2190
sVlimit
p2191
F50.0
sa(dp2192
Vusage
p2193
F0.0
sVmetric
p2194
VREGIONAL_AUTOSCALERS
p2195
sVlimit
p2196
F20.0
sa(dp2197
Vusage
p2198
F0.0
sVmetric
p2199
VREGIONAL_INSTANCE_GROUP_MANAGERS
p2200
sVlimit
p2201
F20.0
sa(dp2202
Vusage
p2203
F0.0
sVmetric
p2204
VPREEMPTIBLE_CPUS
p2205
sVlimit
p2206
F0.0
sa(dp2207
Vusage
p2208
F0.0
sVmetric
p2209
VNVIDIA_K80_GPUS
p2210
sVlimit
p2211
F1.0
sa(dp2212
Vusage
p2213
F0.0
sVmetric
p2214
VCOMMITMENTS
p2215
sVlimit
p2216
F0.0
sa(dp2217
Vusage
p2218
F0.0
sVmetric
p2219
VINTERNAL_ADDRESSES
p2220
sVlimit
p2221
F200.0
sa(dp2222
Vusage
p2223
F0.0
sVmetric
p2224
VNVIDIA_P100_GPUS
p2225
sVlimit
p2226
F1.0
sa(dp2227
Vusage
p2228
F0.0
sVmetric
p2229
VPREEMPTIBLE_LOCAL_SSD_GB
p2230
sVlimit
p2231
F0.0
sa(dp2232
Vusage
p2233
F0.0
sVmetric
p2234
VPREEMPTIBLE_NVIDIA_K80_GPUS
p2235
sVlimit
p2236
F1.0
sa(dp2237
Vusage
p2238
F0.0
sVmetric
p2239
VPREEMPTIBLE_NVIDIA_P100_GPUS
p2240
sVlimit
p2241
F1.0
sa(dp2242
Vusage
p2243
F0.0
sVmetric
p2244
VNVIDIA_P100_VWS_GPUS
p2245
sVlimit
p2246
F1.0
sa(dp2247
Vusage
p2248
F0.0
sVmetric
p2249
VNVIDIA_V100_GPUS
p2250
sVlimit
p2251
F1.0
sa(dp2252
Vusage
p2253
F0.0
sVmetric
p2254
VNVIDIA_P4_GPUS
p2255
sVlimit
p2256
F1.0
sa(dp2257
Vusage
p2258
F0.0
sVmetric
p2259
VNVIDIA_P4_VWS_GPUS
p2260
sVlimit
p2261
F1.0
sa(dp2262
Vusage
p2263
F0.0
sVmetric
p2264
VPREEMPTIBLE_NVIDIA_V100_GPUS
p2265
sVlimit
p2266
F1.0
sa(dp2267
Vusage
p2268
F0.0
sVmetric
p2269
VPREEMPTIBLE_NVIDIA_P4_GPUS
p2270
sVlimit
p2271
F1.0
sa(dp2272
Vusage
p2273
F0.0
sVmetric
p2274
VPREEMPTIBLE_NVIDIA_P100_VWS_GPUS
p2275
sVlimit
p2276
F1.0
sa(dp2277
Vusage
p2278
F0.0
sVmetric
p2279
VPREEMPTIBLE_NVIDIA_P4_VWS_GPUS
p2280
sVlimit
p2281
F1.0
sa(dp2282
Vusage
p2283
F0.0
sVmetric
p2284
VINTERCONNECT_ATTACHMENTS_PER_REGION
p2285
sVlimit
p2286
F16.0
sa(dp2287
Vusage
p2288
F0.0
sVmetric
p2289
VINTERCONNECT_ATTACHMENTS_TOTAL_MBPS
p2290
sVlimit
p2291
F80000.0
sa(dp2292
Vusage
p2293
F0.0
sVmetric
p2294
VRESOURCE_POLICIES
p2295
sVlimit
p2296
F5.0
sa(dp2297
Vusage
p2298
F0.0
sVmetric
p2299
VIN_USE_BACKUP_SCHEDULES
p2300
sVlimit
p2301
F20.0
sa(dp2302
Vusage
p2303
F0.0
sVmetric
p2304
VNVIDIA_T4_GPUS
p2305
sVlimit
p2306
F1.0
sa(dp2307
Vusage
p2308
F0.0
sVmetric
p2309
VNVIDIA_T4_VWS_GPUS
p2310
sVlimit
p2311
F1.0
sa(dp2312
Vusage
p2313
F0.0
sVmetric
p2314
VPREEMPTIBLE_NVIDIA_T4_GPUS
p2315
sVlimit
p2316
F1.0
sa(dp2317
Vusage
p2318
F0.0
sVmetric
p2319
VPREEMPTIBLE_NVIDIA_T4_VWS_GPUS
p2320
sVlimit
p2321
F1.0
sasg264
(lp2322
g2
(g266
g4
Ntp2323
Rp2324
(dp2325
g10
VUP
p2326
sg271
Nsg52
Veurope-west3-c
p2327
sg8
(dp2328
g274
Vhttps://www.googleapis.com/compute/v1/projects/libcloud-221521/regions/europe-west3
p2329
sg77
V1969-12-31T16:00:00.000-08:00
p2330
sg79
Veurope-west3-c
p2331
sg57
Vhttps://www.googleapis.com/compute/v1/projects/libcloud-221521/zones/europe-west3-c
p2332
ssg17
Nsg60
g63
sg279
Veurope
p2333
sg281
S'2300'
p2334
sbag2
(g266
g4
Ntp2335
Rp2336
(dp2337
g10
VUP
p2338
sg271
Nsg52
Veurope-west3-a
p2339
sg8
(dp2340
g274
Vhttps://www.googleapis.com/compute/v1/projects/libcloud-221521/regions/europe-west3
p2341
sg77
V1969-12-31T16:00:00.000-08:00
p2342
sg79
Veurope-west3-a
p2343
sg57
Vhttps://www.googleapis.com/compute/v1/projects/libcloud-221521/zones/europe-west3-a
p2344
ssg17
Nsg60
g63
sg279
Veurope
p2345
sg281
S'2301'
p2346
sbag2
(g266
g4
Ntp2347
Rp2348
(dp2349
g10
VUP
p2350
sg271
Nsg52
Veurope-west3-b
p2351
sg8
(dp2352
g274
Vhttps://www.googleapis.com/compute/v1/projects/libcloud-221521/regions/europe-west3
p2353
sg77
V1969-12-31T16:00:00.000-08:00
p2354
sg79
Veurope-west3-b
p2355
sg57
Vhttps://www.googleapis.com/compute/v1/projects/libcloud-221521/zones/europe-west3-b
p2356
ssg17
Nsg60
g63
sg279
Veurope
p2357
sg281
S'2302'
p2358
sbasg281
S'1300'
p2359
sbag2
(g70
g4
Ntp2360
Rp2361
(dp2362
g10
VUP
p2363
sg52
Veurope-west4
p2364
sg8
(dp2365
g77
V1969-12-31T16:00:00.000-08:00
p2366
sg79
Veurope-west4
p2367
sg57
Vhttps://www.googleapis.com/compute/v1/projects/libcloud-221521/regions/europe-west4
p2368
ssg17
Nsg59
Nsg60
g63
sg82
(lp2369
(dp2370
Vusage
p2371
F0.0
sVmetric
p2372
VCPUS
p2373
sVlimit
p2374
F72.0
sa(dp2375
Vusage
p2376
F0.0
sVmetric
p2377
VDISKS_TOTAL_GB
p2378
sVlimit
p2379
F40960.0
sa(dp2380
Vusage
p2381
F0.0
sVmetric
p2382
VSTATIC_ADDRESSES
p2383
sVlimit
p2384
F21.0
sa(dp2385
Vusage
p2386
F0.0
sVmetric
p2387
VIN_USE_ADDRESSES
p2388
sVlimit
p2389
F69.0
sa(dp2390
Vusage
p2391
F0.0
sVmetric
p2392
VSSD_TOTAL_GB
p2393
sVlimit
p2394
F20480.0
sa(dp2395
Vusage
p2396
F0.0
sVmetric
p2397
VLOCAL_SSD_TOTAL_GB
p2398
sVlimit
p2399
F20000.0
sa(dp2400
Vusage
p2401
F0.0
sVmetric
p2402
VINSTANCE_GROUPS
p2403
sVlimit
p2404
F300.0
sa(dp2405
Vusage
p2406
F0.0
sVmetric
p2407
VINSTANCE_GROUP_MANAGERS
p2408
sVlimit
p2409
F150.0
sa(dp2410
Vusage
p2411
F0.0
sVmetric
p2412
VINSTANCES
p2413
sVlimit
p2414
F720.0
sa(dp2415
Vusage
p2416
F0.0
sVmetric
p2417
VAUTOSCALERS
p2418
sVlimit
p2419
F150.0
sa(dp2420
Vusage
p2421
F0.0
sVmetric
p2422
VREGIONAL_AUTOSCALERS
p2423
sVlimit
p2424
F100.0
sa(dp2425
Vusage
p2426
F0.0
sVmetric
p2427
VREGIONAL_INSTANCE_GROUP_MANAGERS
p2428
sVlimit
p2429
F100.0
sa(dp2430
Vusage
p2431
F0.0
sVmetric
p2432
VPREEMPTIBLE_CPUS
p2433
sVlimit
p2434
F0.0
sa(dp2435
Vusage
p2436
F0.0
sVmetric
p2437
VNVIDIA_K80_GPUS
p2438
sVlimit
p2439
F8.0
sa(dp2440
Vusage
p2441
F0.0
sVmetric
p2442
VCOMMITMENTS
p2443
sVlimit
p2444
F0.0
sa(dp2445
Vusage
p2446
F0.0
sVmetric
p2447
VINTERNAL_ADDRESSES
p2448
sVlimit
p2449
F200.0
sa(dp2450
Vusage
p2451
F0.0
sVmetric
p2452
VNVIDIA_P100_GPUS
p2453
sVlimit
p2454
F1.0
sa(dp2455
Vusage
p2456
F0.0
sVmetric
p2457
VPREEMPTIBLE_LOCAL_SSD_GB
p2458
sVlimit
p2459
F0.0
sa(dp2460
Vusage
p2461
F0.0
sVmetric
p2462
VPREEMPTIBLE_NVIDIA_K80_GPUS
p2463
sVlimit
p2464
F1.0
sa(dp2465
Vusage
p2466
F0.0
sVmetric
p2467
VPREEMPTIBLE_NVIDIA_P100_GPUS
p2468
sVlimit
p2469
F1.0
sa(dp2470
Vusage
p2471
F0.0
sVmetric
p2472
VNVIDIA_P100_VWS_GPUS
p2473
sVlimit
p2474
F1.0
sa(dp2475
Vusage
p2476
F0.0
sVmetric
p2477
VNVIDIA_V100_GPUS
p2478
sVlimit
p2479
F1.0
sa(dp2480
Vusage
p2481
F0.0
sVmetric
p2482
VNVIDIA_P4_GPUS
p2483
sVlimit
p2484
F1.0
sa(dp2485
Vusage
p2486
F0.0
sVmetric
p2487
VNVIDIA_P4_VWS_GPUS
p2488
sVlimit
p2489
F1.0
sa(dp2490
Vusage
p2491
F0.0
sVmetric
p2492
VPREEMPTIBLE_NVIDIA_V100_GPUS
p2493
sVlimit
p2494
F1.0
sa(dp2495
Vusage
p2496
F0.0
sVmetric
p2497
VPREEMPTIBLE_NVIDIA_P4_GPUS
p2498
sVlimit
p2499
F1.0
sa(dp2500
Vusage
p2501
F0.0
sVmetric
p2502
VPREEMPTIBLE_NVIDIA_P100_VWS_GPUS
p2503
sVlimit
p2504
F1.0
sa(dp2505
Vusage
p2506
F0.0
sVmetric
p2507
VPREEMPTIBLE_NVIDIA_P4_VWS_GPUS
p2508
sVlimit
p2509
F1.0
sa(dp2510
Vusage
p2511
F0.0
sVmetric
p2512
VINTERCONNECT_ATTACHMENTS_PER_REGION
p2513
sVlimit
p2514
F16.0
sa(dp2515
Vusage
p2516
F0.0
sVmetric
p2517
VINTERCONNECT_ATTACHMENTS_TOTAL_MBPS
p2518
sVlimit
p2519
F80000.0
sa(dp2520
Vusage
p2521
F0.0
sVmetric
p2522
VRESOURCE_POLICIES
p2523
sVlimit
p2524
F10.0
sa(dp2525
Vusage
p2526
F0.0
sVmetric
p2527
VIN_USE_BACKUP_SCHEDULES
p2528
sVlimit
p2529
F50.0
sa(dp2530
Vusage
p2531
F0.0
sVmetric
p2532
VNVIDIA_T4_GPUS
p2533
sVlimit
p2534
F1.0
sa(dp2535
Vusage
p2536
F0.0
sVmetric
p2537
VNVIDIA_T4_VWS_GPUS
p2538
sVlimit
p2539
F1.0
sa(dp2540
Vusage
p2541
F0.0
sVmetric
p2542
VPREEMPTIBLE_NVIDIA_T4_GPUS
p2543
sVlimit
p2544
F1.0
sa(dp2545
Vusage
p2546
F0.0
sVmetric
p2547
VPREEMPTIBLE_NVIDIA_T4_VWS_GPUS
p2548
sVlimit
p2549
F1.0
sasg264
(lp2550
g2
(g266
g4
Ntp2551
Rp2552
(dp2553
g10
VUP
p2554
sg271
Nsg52
Veurope-west4-c
p2555
sg8
(dp2556
g274
Vhttps://www.googleapis.com/compute/v1/projects/libcloud-221521/regions/europe-west4
p2557
sg77
V1969-12-31T16:00:00.000-08:00
p2558
sg79
Veurope-west4-c
p2559
sg57
Vhttps://www.googleapis.com/compute/v1/projects/libcloud-221521/zones/europe-west4-c
p2560
ssg17
Nsg60
g63
sg279
Veurope
p2561
sg281
S'2340'
p2562
sbag2
(g266
g4
Ntp2563
Rp2564
(dp2565
g10
VUP
p2566
sg271
Nsg52
Veurope-west4-b
p2567
sg8
(dp2568
g274
Vhttps://www.googleapis.com/compute/v1/projects/libcloud-221521/regions/europe-west4
p2569
sg77
V1969-12-31T16:00:00.000-08:00
p2570
sg79
Veurope-west4-b
p2571
sg57
Vhttps://www.googleapis.com/compute/v1/projects/libcloud-221521/zones/europe-west4-b
p2572
ssg17
Nsg60
g63
sg279
Veurope
p2573
sg281
S'2341'
p2574
sbag2
(g266
g4
Ntp2575
Rp2576
(dp2577
g10
VUP
p2578
sg271
Nsg52
Veurope-west4-a
p2579
sg8
(dp2580
g274
Vhttps://www.googleapis.com/compute/v1/projects/libcloud-221521/regions/europe-west4
p2581
sg77
V1969-12-31T16:00:00.000-08:00
p2582
sg79
Veurope-west4-a
p2583
sg57
Vhttps://www.googleapis.com/compute/v1/projects/libcloud-221521/zones/europe-west4-a
p2584
ssg17
Nsg60
g63
sg279
Veurope
p2585
sg281
S'2342'
p2586
sbasg281
S'1340'
p2587
sbag2
(g70
g4
Ntp2588
Rp2589
(dp2590
g10
VUP
p2591
sg52
Vnorthamerica-northeast1
p2592
sg8
(dp2593
g77
V1969-12-31T16:00:00.000-08:00
p2594
sg79
Vnorthamerica-northeast1
p2595
sg57
Vhttps://www.googleapis.com/compute/v1/projects/libcloud-221521/regions/northamerica-northeast1
p2596
ssg17
Nsg59
Nsg60
g63
sg82
(lp2597
(dp2598
Vusage
p2599
F0.0
sVmetric
p2600
VCPUS
p2601
sVlimit
p2602
F8.0
sa(dp2603
Vusage
p2604
F0.0
sVmetric
p2605
VDISKS_TOTAL_GB
p2606
sVlimit
p2607
F2048.0
sa(dp2608
Vusage
p2609
F0.0
sVmetric
p2610
VSTATIC_ADDRESSES
p2611
sVlimit
p2612
F1.0
sa(dp2613
Vusage
p2614
F0.0
sVmetric
p2615
VIN_USE_ADDRESSES
p2616
sVlimit
p2617
F8.0
sa(dp2618
Vusage
p2619
F0.0
sVmetric
p2620
VSSD_TOTAL_GB
p2621
sVlimit
p2622
F100.0
sa(dp2623
Vusage
p2624
F0.0
sVmetric
p2625
VLOCAL_SSD_TOTAL_GB
p2626
sVlimit
p2627
F1500.0
sa(dp2628
Vusage
p2629
F0.0
sVmetric
p2630
VINSTANCE_GROUPS
p2631
sVlimit
p2632
F100.0
sa(dp2633
Vusage
p2634
F0.0
sVmetric
p2635
VINSTANCE_GROUP_MANAGERS
p2636
sVlimit
p2637
F50.0
sa(dp2638
Vusage
p2639
F0.0
sVmetric
p2640
VINSTANCES
p2641
sVlimit
p2642
F80.0
sa(dp2643
Vusage
p2644
F0.0
sVmetric
p2645
VAUTOSCALERS
p2646
sVlimit
p2647
F50.0
sa(dp2648
Vusage
p2649
F0.0
sVmetric
p2650
VREGIONAL_AUTOSCALERS
p2651
sVlimit
p2652
F20.0
sa(dp2653
Vusage
p2654
F0.0
sVmetric
p2655
VREGIONAL_INSTANCE_GROUP_MANAGERS
p2656
sVlimit
p2657
F20.0
sa(dp2658
Vusage
p2659
F0.0
sVmetric
p2660
VPREEMPTIBLE_CPUS
p2661
sVlimit
p2662
F0.0
sa(dp2663
Vusage
p2664
F0.0
sVmetric
p2665
VNVIDIA_K80_GPUS
p2666
sVlimit
p2667
F1.0
sa(dp2668
Vusage
p2669
F0.0
sVmetric
p2670
VCOMMITMENTS
p2671
sVlimit
p2672
F0.0
sa(dp2673
Vusage
p2674
F0.0
sVmetric
p2675
VINTERNAL_ADDRESSES
p2676
sVlimit
p2677
F200.0
sa(dp2678
Vusage
p2679
F0.0
sVmetric
p2680
VNVIDIA_P100_GPUS
p2681
sVlimit
p2682
F1.0
sa(dp2683
Vusage
p2684
F0.0
sVmetric
p2685
VPREEMPTIBLE_LOCAL_SSD_GB
p2686
sVlimit
p2687
F0.0
sa(dp2688
Vusage
p2689
F0.0
sVmetric
p2690
VPREEMPTIBLE_NVIDIA_K80_GPUS
p2691
sVlimit
p2692
F1.0
sa(dp2693
Vusage
p2694
F0.0
sVmetric
p2695
VPREEMPTIBLE_NVIDIA_P100_GPUS
p2696
sVlimit
p2697
F1.0
sa(dp2698
Vusage
p2699
F0.0
sVmetric
p2700
VNVIDIA_P100_VWS_GPUS
p2701
sVlimit
p2702
F1.0
sa(dp2703
Vusage
p2704
F0.0
sVmetric
p2705
VNVIDIA_V100_GPUS
p2706
sVlimit
p2707
F1.0
sa(dp2708
Vusage
p2709
F0.0
sVmetric
p2710
VNVIDIA_P4_GPUS
p2711
sVlimit
p2712
F1.0
sa(dp2713
Vusage
p2714
F0.0
sVmetric
p2715
VNVIDIA_P4_VWS_GPUS
p2716
sVlimit
p2717
F1.0
sa(dp2718
Vusage
p2719
F0.0
sVmetric
p2720
VPREEMPTIBLE_NVIDIA_V100_GPUS
p2721
sVlimit
p2722
F1.0
sa(dp2723
Vusage
p2724
F0.0
sVmetric
p2725
VPREEMPTIBLE_NVIDIA_P4_GPUS
p2726
sVlimit
p2727
F1.0
sa(dp2728
Vusage
p2729
F0.0
sVmetric
p2730
VPREEMPTIBLE_NVIDIA_P100_VWS_GPUS
p2731
sVlimit
p2732
F1.0
sa(dp2733
Vusage
p2734
F0.0
sVmetric
p2735
VPREEMPTIBLE_NVIDIA_P4_VWS_GPUS
p2736
sVlimit
p2737
F1.0
sa(dp2738
Vusage
p2739
F0.0
sVmetric
p2740
VINTERCONNECT_ATTACHMENTS_PER_REGION
p2741
sVlimit
p2742
F16.0
sa(dp2743
Vusage
p2744
F0.0
sVmetric
p2745
VINTERCONNECT_ATTACHMENTS_TOTAL_MBPS
p2746
sVlimit
p2747
F80000.0
sa(dp2748
Vusage
p2749
F0.0
sVmetric
p2750
VRESOURCE_POLICIES
p2751
sVlimit
p2752
F5.0
sa(dp2753
Vusage
p2754
F0.0
sVmetric
p2755
VIN_USE_BACKUP_SCHEDULES
p2756
sVlimit
p2757
F20.0
sa(dp2758
Vusage
p2759
F0.0
sVmetric
p2760
VNVIDIA_T4_GPUS
p2761
sVlimit
p2762
F1.0
sa(dp2763
Vusage
p2764
F0.0
sVmetric
p2765
VNVIDIA_T4_VWS_GPUS
p2766
sVlimit
p2767
F1.0
sa(dp2768
Vusage
p2769
F0.0
sVmetric
p2770
VPREEMPTIBLE_NVIDIA_T4_GPUS
p2771
sVlimit
p2772
F1.0
sa(dp2773
Vusage
p2774
F0.0
sVmetric
p2775
VPREEMPTIBLE_NVIDIA_T4_VWS_GPUS
p2776
sVlimit
p2777
F1.0
sasg264
(lp2778
g2
(g266
g4
Ntp2779
Rp2780
(dp2781
g10
VUP
p2782
sg271
Nsg52
Vnorthamerica-northeast1-a
p2783
sg8
(dp2784
g274
Vhttps://www.googleapis.com/compute/v1/projects/libcloud-221521/regions/northamerica-northeast1
p2785
sg77
V1969-12-31T16:00:00.000-08:00
p2786
sg79
Vnorthamerica-northeast1-a
p2787
sg57
Vhttps://www.googleapis.com/compute/v1/projects/libcloud-221521/zones/northamerica-northeast1-a
p2788
ssg17
Nsg60
g63
sg279
Vnorthamerica
p2789
sg281
S'2330'
p2790
sbag2
(g266
g4
Ntp2791
Rp2792
(dp2793
g10
VUP
p2794
sg271
Nsg52
Vnorthamerica-northeast1-b
p2795
sg8
(dp2796
g274
Vhttps://www.googleapis.com/compute/v1/projects/libcloud-221521/regions/northamerica-northeast1
p2797
sg77
V1969-12-31T16:00:00.000-08:00
p2798
sg79
Vnorthamerica-northeast1-b
p2799
sg57
Vhttps://www.googleapis.com/compute/v1/projects/libcloud-221521/zones/northamerica-northeast1-b
p2800
ssg17
Nsg60
g63
sg279
Vnorthamerica
p2801
sg281
S'2331'
p2802
sbag2
(g266
g4
Ntp2803
Rp2804
(dp2805
g10
VUP
p2806
sg271
Nsg52
Vnorthamerica-northeast1-c
p2807
sg8
(dp2808
g274
Vhttps://www.googleapis.com/compute/v1/projects/libcloud-221521/regions/northamerica-northeast1
p2809
sg77
V1969-12-31T16:00:00.000-08:00
p2810
sg79
Vnorthamerica-northeast1-c
p2811
sg57
Vhttps://www.googleapis.com/compute/v1/projects/libcloud-221521/zones/northamerica-northeast1-c
p2812
ssg17
Nsg60
g63
sg279
Vnorthamerica
p2813
sg281
S'2332'
p2814
sbasg281
S'1330'
p2815
sbag2
(g70
g4
Ntp2816
Rp2817
(dp2818
g10
VUP
p2819
sg52
Vsouthamerica-east1
p2820
sg8
(dp2821
g77
V1969-12-31T16:00:00.000-08:00
p2822
sg79
Vsouthamerica-east1
p2823
sg57
Vhttps://www.googleapis.com/compute/v1/projects/libcloud-221521/regions/southamerica-east1
p2824
ssg17
Nsg59
Nsg60
g63
sg82
(lp2825
(dp2826
Vusage
p2827
F0.0
sVmetric
p2828
VCPUS
p2829
sVlimit
p2830
F8.0
sa(dp2831
Vusage
p2832
F0.0
sVmetric
p2833
VDISKS_TOTAL_GB
p2834
sVlimit
p2835
F2048.0
sa(dp2836
Vusage
p2837
F0.0
sVmetric
p2838
VSTATIC_ADDRESSES
p2839
sVlimit
p2840
F1.0
sa(dp2841
Vusage
p2842
F0.0
sVmetric
p2843
VIN_USE_ADDRESSES
p2844
sVlimit
p2845
F8.0
sa(dp2846
Vusage
p2847
F0.0
sVmetric
p2848
VSSD_TOTAL_GB
p2849
sVlimit
p2850
F100.0
sa(dp2851
Vusage
p2852
F0.0
sVmetric
p2853
VLOCAL_SSD_TOTAL_GB
p2854
sVlimit
p2855
F1500.0
sa(dp2856
Vusage
p2857
F0.0
sVmetric
p2858
VINSTANCE_GROUPS
p2859
sVlimit
p2860
F100.0
sa(dp2861
Vusage
p2862
F0.0
sVmetric
p2863
VINSTANCE_GROUP_MANAGERS
p2864
sVlimit
p2865
F50.0
sa(dp2866
Vusage
p2867
F0.0
sVmetric
p2868
VINSTANCES
p2869
sVlimit
p2870
F80.0
sa(dp2871
Vusage
p2872
F0.0
sVmetric
p2873
VAUTOSCALERS
p2874
sVlimit
p2875
F50.0
sa(dp2876
Vusage
p2877
F0.0
sVmetric
p2878
VREGIONAL_AUTOSCALERS
p2879
sVlimit
p2880
F20.0
sa(dp2881
Vusage
p2882
F0.0
sVmetric
p2883
VREGIONAL_INSTANCE_GROUP_MANAGERS
p2884
sVlimit
p2885
F20.0
sa(dp2886
Vusage
p2887
F0.0
sVmetric
p2888
VPREEMPTIBLE_CPUS
p2889
sVlimit
p2890
F0.0
sa(dp2891
Vusage
p2892
F0.0
sVmetric
p2893
VNVIDIA_K80_GPUS
p2894
sVlimit
p2895
F1.0
sa(dp2896
Vusage
p2897
F0.0
sVmetric
p2898
VCOMMITMENTS
p2899
sVlimit
p2900
F0.0
sa(dp2901
Vusage
p2902
F0.0
sVmetric
p2903
VINTERNAL_ADDRESSES
p2904
sVlimit
p2905
F200.0
sa(dp2906
Vusage
p2907
F0.0
sVmetric
p2908
VNVIDIA_P100_GPUS
p2909
sVlimit
p2910
F1.0
sa(dp2911
Vusage
p2912
F0.0
sVmetric
p2913
VPREEMPTIBLE_LOCAL_SSD_GB
p2914
sVlimit
p2915
F0.0
sa(dp2916
Vusage
p2917
F0.0
sVmetric
p2918
VPREEMPTIBLE_NVIDIA_K80_GPUS
p2919
sVlimit
p2920
F1.0
sa(dp2921
Vusage
p2922
F0.0
sVmetric
p2923
VPREEMPTIBLE_NVIDIA_P100_GPUS
p2924
sVlimit
p2925
F1.0
sa(dp2926
Vusage
p2927
F0.0
sVmetric
p2928
VNVIDIA_P100_VWS_GPUS
p2929
sVlimit
p2930
F1.0
sa(dp2931
Vusage
p2932
F0.0
sVmetric
p2933
VNVIDIA_V100_GPUS
p2934
sVlimit
p2935
F1.0
sa(dp2936
Vusage
p2937
F0.0
sVmetric
p2938
VNVIDIA_P4_GPUS
p2939
sVlimit
p2940
F1.0
sa(dp2941
Vusage
p2942
F0.0
sVmetric
p2943
VNVIDIA_P4_VWS_GPUS
p2944
sVlimit
p2945
F1.0
sa(dp2946
Vusage
p2947
F0.0
sVmetric
p2948
VPREEMPTIBLE_NVIDIA_V100_GPUS
p2949
sVlimit
p2950
F1.0
sa(dp2951
Vusage
p2952
F0.0
sVmetric
p2953
VPREEMPTIBLE_NVIDIA_P4_GPUS
p2954
sVlimit
p2955
F1.0
sa(dp2956
Vusage
p2957
F0.0
sVmetric
p2958
VPREEMPTIBLE_NVIDIA_P100_VWS_GPUS
p2959
sVlimit
p2960
F1.0
sa(dp2961
Vusage
p2962
F0.0
sVmetric
p2963
VPREEMPTIBLE_NVIDIA_P4_VWS_GPUS
p2964
sVlimit
p2965
F1.0
sa(dp2966
Vusage
p2967
F0.0
sVmetric
p2968
VINTERCONNECT_ATTACHMENTS_PER_REGION
p2969
sVlimit
p2970
F16.0
sa(dp2971
Vusage
p2972
F0.0
sVmetric
p2973
VINTERCONNECT_ATTACHMENTS_TOTAL_MBPS
p2974
sVlimit
p2975
F80000.0
sa(dp2976
Vusage
p2977
F0.0
sVmetric
p2978
VRESOURCE_POLICIES
p2979
sVlimit
p2980
F5.0
sa(dp2981
Vusage
p2982
F0.0
sVmetric
p2983
VIN_USE_BACKUP_SCHEDULES
p2984
sVlimit
p2985
F20.0
sa(dp2986
Vusage
p2987
F0.0
sVmetric
p2988
VNVIDIA_T4_GPUS
p2989
sVlimit
p2990
F1.0
sa(dp2991
Vusage
p2992
F0.0
sVmetric
p2993
VNVIDIA_T4_VWS_GPUS
p2994
sVlimit
p2995
F1.0
sa(dp2996
Vusage
p2997
F0.0
sVmetric
p2998
VPREEMPTIBLE_NVIDIA_T4_GPUS
p2999
sVlimit
p3000
F1.0
sa(dp3001
Vusage
p3002
F0.0
sVmetric
p3003
VPREEMPTIBLE_NVIDIA_T4_VWS_GPUS
p3004
sVlimit
p3005
F1.0
sasg264
(lp3006
g2
(g266
g4
Ntp3007
Rp3008
(dp3009
g10
VUP
p3010
sg271
Nsg52
Vsouthamerica-east1-a
p3011
sg8
(dp3012
g274
Vhttps://www.googleapis.com/compute/v1/projects/libcloud-221521/regions/southamerica-east1
p3013
sg77
V1969-12-31T16:00:00.000-08:00
p3014
sg79
Vsouthamerica-east1-a
p3015
sg57
Vhttps://www.googleapis.com/compute/v1/projects/libcloud-221521/zones/southamerica-east1-a
p3016
ssg17
Nsg60
g63
sg279
Vsouthamerica
p3017
sg281
S'2310'
p3018
sbag2
(g266
g4
Ntp3019
Rp3020
(dp3021
g10
VUP
p3022
sg271
Nsg52
Vsouthamerica-east1-b
p3023
sg8
(dp3024
g274
Vhttps://www.googleapis.com/compute/v1/projects/libcloud-221521/regions/southamerica-east1
p3025
sg77
V1969-12-31T16:00:00.000-08:00
p3026
sg79
Vsouthamerica-east1-b
p3027
sg57
Vhttps://www.googleapis.com/compute/v1/projects/libcloud-221521/zones/southamerica-east1-b
p3028
ssg17
Nsg60
g63
sg279
Vsouthamerica
p3029
sg281
S'2311'
p3030
sbag2
(g266
g4
Ntp3031
Rp3032
(dp3033
g10
VUP
p3034
sg271
Nsg52
Vsouthamerica-east1-c
p3035
sg8
(dp3036
g274
Vhttps://www.googleapis.com/compute/v1/projects/libcloud-221521/regions/southamerica-east1
p3037
sg77
V1969-12-31T16:00:00.000-08:00
p3038
sg79
Vsouthamerica-east1-c
p3039
sg57
Vhttps://www.googleapis.com/compute/v1/projects/libcloud-221521/zones/southamerica-east1-c
p3040
ssg17
Nsg60
g63
sg279
Vsouthamerica
p3041
sg281
S'2312'
p3042
sbasg281
S'1310'
p3043
sbag2
(g70
g4
Ntp3044
Rp3045
(dp3046
g10
VUP
p3047
sg52
Vus-central1
p3048
sg8
(dp3049
g77
V1969-12-31T16:00:00.000-08:00
p3050
sg79
Vus-central1
p3051
sg57
Vhttps://www.googleapis.com/compute/v1/projects/libcloud-221521/regions/us-central1
p3052
ssg17
Nsg59
Nsg60
g63
sg82
(lp3053
(dp3054
Vusage
p3055
F0.0
sVmetric
p3056
VCPUS
p3057
sVlimit
p3058
F72.0
sa(dp3059
Vusage
p3060
F0.0
sVmetric
p3061
VDISKS_TOTAL_GB
p3062
sVlimit
p3063
F40960.0
sa(dp3064
Vusage
p3065
F0.0
sVmetric
p3066
VSTATIC_ADDRESSES
p3067
sVlimit
p3068
F21.0
sa(dp3069
Vusage
p3070
F0.0
sVmetric
p3071
VIN_USE_ADDRESSES
p3072
sVlimit
p3073
F69.0
sa(dp3074
Vusage
p3075
F0.0
sVmetric
p3076
VSSD_TOTAL_GB
p3077
sVlimit
p3078
F20480.0
sa(dp3079
Vusage
p3080
F0.0
sVmetric
p3081
VLOCAL_SSD_TOTAL_GB
p3082
sVlimit
p3083
F20000.0
sa(dp3084
Vusage
p3085
F0.0
sVmetric
p3086
VINSTANCE_GROUPS
p3087
sVlimit
p3088
F300.0
sa(dp3089
Vusage
p3090
F0.0
sVmetric
p3091
VINSTANCE_GROUP_MANAGERS
p3092
sVlimit
p3093
F150.0
sa(dp3094
Vusage
p3095
F0.0
sVmetric
p3096
VINSTANCES
p3097
sVlimit
p3098
F720.0
sa(dp3099
Vusage
p3100
F0.0
sVmetric
p3101
VAUTOSCALERS
p3102
sVlimit
p3103
F150.0
sa(dp3104
Vusage
p3105
F0.0
sVmetric
p3106
VREGIONAL_AUTOSCALERS
p3107
sVlimit
p3108
F100.0
sa(dp3109
Vusage
p3110
F0.0
sVmetric
p3111
VREGIONAL_INSTANCE_GROUP_MANAGERS
p3112
sVlimit
p3113
F100.0
sa(dp3114
Vusage
p3115
F0.0
sVmetric
p3116
VPREEMPTIBLE_CPUS
p3117
sVlimit
p3118
F0.0
sa(dp3119
Vusage
p3120
F0.0
sVmetric
p3121
VNVIDIA_K80_GPUS
p3122
sVlimit
p3123
F8.0
sa(dp3124
Vusage
p3125
F0.0
sVmetric
p3126
VCOMMITMENTS
p3127
sVlimit
p3128
F0.0
sa(dp3129
Vusage
p3130
F0.0
sVmetric
p3131
VINTERNAL_ADDRESSES
p3132
sVlimit
p3133
F200.0
sa(dp3134
Vusage
p3135
F0.0
sVmetric
p3136
VNVIDIA_P100_GPUS
p3137
sVlimit
p3138
F1.0
sa(dp3139
Vusage
p3140
F0.0
sVmetric
p3141
VPREEMPTIBLE_LOCAL_SSD_GB
p3142
sVlimit
p3143
F0.0
sa(dp3144
Vusage
p3145
F0.0
sVmetric
p3146
VPREEMPTIBLE_NVIDIA_K80_GPUS
p3147
sVlimit
p3148
F1.0
sa(dp3149
Vusage
p3150
F0.0
sVmetric
p3151
VPREEMPTIBLE_NVIDIA_P100_GPUS
p3152
sVlimit
p3153
F1.0
sa(dp3154
Vusage
p3155
F0.0
sVmetric
p3156
VNVIDIA_P100_VWS_GPUS
p3157
sVlimit
p3158
F1.0
sa(dp3159
Vusage
p3160
F0.0
sVmetric
p3161
VNVIDIA_V100_GPUS
p3162
sVlimit
p3163
F1.0
sa(dp3164
Vusage
p3165
F0.0
sVmetric
p3166
VNVIDIA_P4_GPUS
p3167
sVlimit
p3168
F1.0
sa(dp3169
Vusage
p3170
F0.0
sVmetric
p3171
VNVIDIA_P4_VWS_GPUS
p3172
sVlimit
p3173
F1.0
sa(dp3174
Vusage
p3175
F0.0
sVmetric
p3176
VPREEMPTIBLE_NVIDIA_V100_GPUS
p3177
sVlimit
p3178
F1.0
sa(dp3179
Vusage
p3180
F0.0
sVmetric
p3181
VPREEMPTIBLE_NVIDIA_P4_GPUS
p3182
sVlimit
p3183
F1.0
sa(dp3184
Vusage
p3185
F0.0
sVmetric
p3186
VPREEMPTIBLE_NVIDIA_P100_VWS_GPUS
p3187
sVlimit
p3188
F1.0
sa(dp3189
Vusage
p3190
F0.0
sVmetric
p3191
VPREEMPTIBLE_NVIDIA_P4_VWS_GPUS
p3192
sVlimit
p3193
F1.0
sa(dp3194
Vusage
p3195
F0.0
sVmetric
p3196
VINTERCONNECT_ATTACHMENTS_PER_REGION
p3197
sVlimit
p3198
F16.0
sa(dp3199
Vusage
p3200
F0.0
sVmetric
p3201
VINTERCONNECT_ATTACHMENTS_TOTAL_MBPS
p3202
sVlimit
p3203
F80000.0
sa(dp3204
Vusage
p3205
F0.0
sVmetric
p3206
VRESOURCE_POLICIES
p3207
sVlimit
p3208
F10.0
sa(dp3209
Vusage
p3210
F0.0
sVmetric
p3211
VIN_USE_BACKUP_SCHEDULES
p3212
sVlimit
p3213
F50.0
sa(dp3214
Vusage
p3215
F0.0
sVmetric
p3216
VNVIDIA_T4_GPUS
p3217
sVlimit
p3218
F1.0
sa(dp3219
Vusage
p3220
F0.0
sVmetric
p3221
VNVIDIA_T4_VWS_GPUS
p3222
sVlimit
p3223
F1.0
sa(dp3224
Vusage
p3225
F0.0
sVmetric
p3226
VPREEMPTIBLE_NVIDIA_T4_GPUS
p3227
sVlimit
p3228
F1.0
sa(dp3229
Vusage
p3230
F0.0
sVmetric
p3231
VPREEMPTIBLE_NVIDIA_T4_VWS_GPUS
p3232
sVlimit
p3233
F1.0
sasg264
(lp3234
g2
(g266
g4
Ntp3235
Rp3236
(dp3237
g10
VUP
p3238
sg271
Nsg52
Vus-central1-a
p3239
sg8
(dp3240
g274
Vhttps://www.googleapis.com/compute/v1/projects/libcloud-221521/regions/us-central1
p3241
sg77
V1969-12-31T16:00:00.000-08:00
p3242
sg79
Vus-central1-a
p3243
sg57
Vhttps://www.googleapis.com/compute/v1/projects/libcloud-221521/zones/us-central1-a
p3244
ssg17
Nsg60
g63
sg279
Vus
p3245
sg281
S'2000'
p3246
sbag2
(g266
g4
Ntp3247
Rp3248
(dp3249
g10
VUP
p3250
sg271
Nsg52
Vus-central1-b
p3251
sg8
(dp3252
g274
Vhttps://www.googleapis.com/compute/v1/projects/libcloud-221521/regions/us-central1
p3253
sg77
V1969-12-31T16:00:00.000-08:00
p3254
sg79
Vus-central1-b
p3255
sg57
Vhttps://www.googleapis.com/compute/v1/projects/libcloud-221521/zones/us-central1-b
p3256
ssg17
Nsg60
g63
sg279
Vus
p3257
sg281
S'2001'
p3258
sbag2
(g266
g4
Ntp3259
Rp3260
(dp3261
g10
VUP
p3262
sg271
Nsg52
Vus-central1-c
p3263
sg8
(dp3264
g274
Vhttps://www.googleapis.com/compute/v1/projects/libcloud-221521/regions/us-central1
p3265
sg77
V1969-12-31T16:00:00.000-08:00
p3266
sg79
Vus-central1-c
p3267
sg57
Vhttps://www.googleapis.com/compute/v1/projects/libcloud-221521/zones/us-central1-c
p3268
ssg17
Nsg60
g63
sg279
Vus
p3269
sg281
S'2002'
p3270
sbag2
(g266
g4
Ntp3271
Rp3272
(dp3273
g10
VUP
p3274
sg271
Nsg52
Vus-central1-f
p3275
sg8
(dp3276
g274
Vhttps://www.googleapis.com/compute/v1/projects/libcloud-221521/regions/us-central1
p3277
sg77
V1969-12-31T16:00:00.000-08:00
p3278
sg79
Vus-central1-f
p3279
sg57
Vhttps://www.googleapis.com/compute/v1/projects/libcloud-221521/zones/us-central1-f
p3280
ssg17
Nsg60
g63
sg279
Vus
p3281
sg281
S'2004'
p3282
sbasg281
S'1000'
p3283
sbag2
(g70
g4
Ntp3284
Rp3285
(dp3286
g10
VUP
p3287
sg52
Vus-east1
p3288
sg8
(dp3289
g77
V1969-12-31T16:00:00.000-08:00
p3290
sg79
Vus-east1
p3291
sg57
Vhttps://www.googleapis.com/compute/v1/projects/libcloud-221521/regions/us-east1
p3292
ssg17
Nsg59
Nsg60
g63
sg82
(lp3293
(dp3294
Vusage
p3295
F0.0
sVmetric
p3296
VCPUS
p3297
sVlimit
p3298
F72.0
sa(dp3299
Vusage
p3300
F0.0
sVmetric
p3301
VDISKS_TOTAL_GB
p3302
sVlimit
p3303
F40960.0
sa(dp3304
Vusage
p3305
F0.0
sVmetric
p3306
VSTATIC_ADDRESSES
p3307
sVlimit
p3308
F21.0
sa(dp3309
Vusage
p3310
F0.0
sVmetric
p3311
VIN_USE_ADDRESSES
p3312
sVlimit
p3313
F69.0
sa(dp3314
Vusage
p3315
F0.0
sVmetric
p3316
VSSD_TOTAL_GB
p3317
sVlimit
p3318
F20480.0
sa(dp3319
Vusage
p3320
F0.0
sVmetric
p3321
VLOCAL_SSD_TOTAL_GB
p3322
sVlimit
p3323
F20000.0
sa(dp3324
Vusage
p3325
F0.0
sVmetric
p3326
VINSTANCE_GROUPS
p3327
sVlimit
p3328
F300.0
sa(dp3329
Vusage
p3330
F0.0
sVmetric
p3331
VINSTANCE_GROUP_MANAGERS
p3332
sVlimit
p3333
F150.0
sa(dp3334
Vusage
p3335
F0.0
sVmetric
p3336
VINSTANCES
p3337
sVlimit
p3338
F720.0
sa(dp3339
Vusage
p3340
F0.0
sVmetric
p3341
VAUTOSCALERS
p3342
sVlimit
p3343
F150.0
sa(dp3344
Vusage
p3345
F0.0
sVmetric
p3346
VREGIONAL_AUTOSCALERS
p3347
sVlimit
p3348
F100.0
sa(dp3349
Vusage
p3350
F0.0
sVmetric
p3351
VREGIONAL_INSTANCE_GROUP_MANAGERS
p3352
sVlimit
p3353
F100.0
sa(dp3354
Vusage
p3355
F0.0
sVmetric
p3356
VPREEMPTIBLE_CPUS
p3357
sVlimit
p3358
F0.0
sa(dp3359
Vusage
p3360
F0.0
sVmetric
p3361
VNVIDIA_K80_GPUS
p3362
sVlimit
p3363
F8.0
sa(dp3364
Vusage
p3365
F0.0
sVmetric
p3366
VCOMMITMENTS
p3367
sVlimit
p3368
F0.0
sa(dp3369
Vusage
p3370
F0.0
sVmetric
p3371
VINTERNAL_ADDRESSES
p3372
sVlimit
p3373
F200.0
sa(dp3374
Vusage
p3375
F0.0
sVmetric
p3376
VNVIDIA_P100_GPUS
p3377
sVlimit
p3378
F1.0
sa(dp3379
Vusage
p3380
F0.0
sVmetric
p3381
VPREEMPTIBLE_LOCAL_SSD_GB
p3382
sVlimit
p3383
F0.0
sa(dp3384
Vusage
p3385
F0.0
sVmetric
p3386
VPREEMPTIBLE_NVIDIA_K80_GPUS
p3387
sVlimit
p3388
F1.0
sa(dp3389
Vusage
p3390
F0.0
sVmetric
p3391
VPREEMPTIBLE_NVIDIA_P100_GPUS
p3392
sVlimit
p3393
F1.0
sa(dp3394
Vusage
p3395
F0.0
sVmetric
p3396
VNVIDIA_P100_VWS_GPUS
p3397
sVlimit
p3398
F1.0
sa(dp3399
Vusage
p3400
F0.0
sVmetric
p3401
VNVIDIA_V100_GPUS
p3402
sVlimit
p3403
F1.0
sa(dp3404
Vusage
p3405
F0.0
sVmetric
p3406
VNVIDIA_P4_GPUS
p3407
sVlimit
p3408
F1.0
sa(dp3409
Vusage
p3410
F0.0
sVmetric
p3411
VNVIDIA_P4_VWS_GPUS
p3412
sVlimit
p3413
F1.0
sa(dp3414
Vusage
p3415
F0.0
sVmetric
p3416
VPREEMPTIBLE_NVIDIA_V100_GPUS
p3417
sVlimit
p3418
F1.0
sa(dp3419
Vusage
p3420
F0.0
sVmetric
p3421
VPREEMPTIBLE_NVIDIA_P4_GPUS
p3422
sVlimit
p3423
F1.0
sa(dp3424
Vusage
p3425
F0.0
sVmetric
p3426
VPREEMPTIBLE_NVIDIA_P100_VWS_GPUS
p3427
sVlimit
p3428
F1.0
sa(dp3429
Vusage
p3430
F0.0
sVmetric
p3431
VPREEMPTIBLE_NVIDIA_P4_VWS_GPUS
p3432
sVlimit
p3433
F1.0
sa(dp3434
Vusage
p3435
F0.0
sVmetric
p3436
VINTERCONNECT_ATTACHMENTS_PER_REGION
p3437
sVlimit
p3438
F16.0
sa(dp3439
Vusage
p3440
F0.0
sVmetric
p3441
VINTERCONNECT_ATTACHMENTS_TOTAL_MBPS
p3442
sVlimit
p3443
F80000.0
sa(dp3444
Vusage
p3445
F0.0
sVmetric
p3446
VRESOURCE_POLICIES
p3447
sVlimit
p3448
F10.0
sa(dp3449
Vusage
p3450
F0.0
sVmetric
p3451
VIN_USE_BACKUP_SCHEDULES
p3452
sVlimit
p3453
F50.0
sa(dp3454
Vusage
p3455
F0.0
sVmetric
p3456
VNVIDIA_T4_GPUS
p3457
sVlimit
p3458
F1.0
sa(dp3459
Vusage
p3460
F0.0
sVmetric
p3461
VNVIDIA_T4_VWS_GPUS
p3462
sVlimit
p3463
F1.0
sa(dp3464
Vusage
p3465
F0.0
sVmetric
p3466
VPREEMPTIBLE_NVIDIA_T4_GPUS
p3467
sVlimit
p3468
F1.0
sa(dp3469
Vusage
p3470
F0.0
sVmetric
p3471
VPREEMPTIBLE_NVIDIA_T4_VWS_GPUS
p3472
sVlimit
p3473
F1.0
sasg264
(lp3474
g2
(g266
g4
Ntp3475
Rp3476
(dp3477
g10
VUP
p3478
sg271
Nsg52
Vus-east1-b
p3479
sg8
(dp3480
g274
Vhttps://www.googleapis.com/compute/v1/projects/libcloud-221521/regions/us-east1
p3481
sg77
V1969-12-31T16:00:00.000-08:00
p3482
sg79
Vus-east1-b
p3483
sg57
Vhttps://www.googleapis.com/compute/v1/projects/libcloud-221521/zones/us-east1-b
p3484
ssg17
Nsg60
g63
sg279
Vus
p3485
sg281
S'2231'
p3486
sbag2
(g266
g4
Ntp3487
Rp3488
(dp3489
g10
VUP
p3490
sg271
Nsg52
Vus-east1-c
p3491
sg8
(dp3492
g274
Vhttps://www.googleapis.com/compute/v1/projects/libcloud-221521/regions/us-east1
p3493
sg77
V1969-12-31T16:00:00.000-08:00
p3494
sg79
Vus-east1-c
p3495
sg57
Vhttps://www.googleapis.com/compute/v1/projects/libcloud-221521/zones/us-east1-c
p3496
ssg17
Nsg60
g63
sg279
Vus
p3497
sg281
S'2233'
p3498
sbag2
(g266
g4
Ntp3499
Rp3500
(dp3501
g10
VUP
p3502
sg271
Nsg52
Vus-east1-d
p3503
sg8
(dp3504
g274
Vhttps://www.googleapis.com/compute/v1/projects/libcloud-221521/regions/us-east1
p3505
sg77
V1969-12-31T16:00:00.000-08:00
p3506
sg79
Vus-east1-d
p3507
sg57
Vhttps://www.googleapis.com/compute/v1/projects/libcloud-221521/zones/us-east1-d
p3508
ssg17
Nsg60
g63
sg279
Vus
p3509
sg281
S'2234'
p3510
sbasg281
S'1230'
p3511
sbag2
(g70
g4
Ntp3512
Rp3513
(dp3514
g10
VUP
p3515
sg52
Vus-east4
p3516
sg8
(dp3517
g77
V1969-12-31T16:00:00.000-08:00
p3518
sg79
Vus-east4
p3519
sg57
Vhttps://www.googleapis.com/compute/v1/projects/libcloud-221521/regions/us-east4
p3520
ssg17
Nsg59
Nsg60
g63
sg82
(lp3521
(dp3522
Vusage
p3523
F0.0
sVmetric
p3524
VCPUS
p3525
sVlimit
p3526
F72.0
sa(dp3527
Vusage
p3528
F0.0
sVmetric
p3529
VDISKS_TOTAL_GB
p3530
sVlimit
p3531
F40960.0
sa(dp3532
Vusage
p3533
F0.0
sVmetric
p3534
VSTATIC_ADDRESSES
p3535
sVlimit
p3536
F21.0
sa(dp3537
Vusage
p3538
F0.0
sVmetric
p3539
VIN_USE_ADDRESSES
p3540
sVlimit
p3541
F69.0
sa(dp3542
Vusage
p3543
F0.0
sVmetric
p3544
VSSD_TOTAL_GB
p3545
sVlimit
p3546
F20480.0
sa(dp3547
Vusage
p3548
F0.0
sVmetric
p3549
VLOCAL_SSD_TOTAL_GB
p3550
sVlimit
p3551
F20000.0
sa(dp3552
Vusage
p3553
F0.0
sVmetric
p3554
VINSTANCE_GROUPS
p3555
sVlimit
p3556
F300.0
sa(dp3557
Vusage
p3558
F0.0
sVmetric
p3559
VINSTANCE_GROUP_MANAGERS
p3560
sVlimit
p3561
F150.0
sa(dp3562
Vusage
p3563
F0.0
sVmetric
p3564
VINSTANCES
p3565
sVlimit
p3566
F720.0
sa(dp3567
Vusage
p3568
F0.0
sVmetric
p3569
VAUTOSCALERS
p3570
sVlimit
p3571
F150.0
sa(dp3572
Vusage
p3573
F0.0
sVmetric
p3574
VREGIONAL_AUTOSCALERS
p3575
sVlimit
p3576
F100.0
sa(dp3577
Vusage
p3578
F0.0
sVmetric
p3579
VREGIONAL_INSTANCE_GROUP_MANAGERS
p3580
sVlimit
p3581
F100.0
sa(dp3582
Vusage
p3583
F0.0
sVmetric
p3584
VPREEMPTIBLE_CPUS
p3585
sVlimit
p3586
F0.0
sa(dp3587
Vusage
p3588
F0.0
sVmetric
p3589
VNVIDIA_K80_GPUS
p3590
sVlimit
p3591
F8.0
sa(dp3592
Vusage
p3593
F0.0
sVmetric
p3594
VCOMMITMENTS
p3595
sVlimit
p3596
F0.0
sa(dp3597
Vusage
p3598
F0.0
sVmetric
p3599
VINTERNAL_ADDRESSES
p3600
sVlimit
p3601
F200.0
sa(dp3602
Vusage
p3603
F0.0
sVmetric
p3604
VNVIDIA_P100_GPUS
p3605
sVlimit
p3606
F1.0
sa(dp3607
Vusage
p3608
F0.0
sVmetric
p3609
VPREEMPTIBLE_LOCAL_SSD_GB
p3610
sVlimit
p3611
F0.0
sa(dp3612
Vusage
p3613
F0.0
sVmetric
p3614
VPREEMPTIBLE_NVIDIA_K80_GPUS
p3615
sVlimit
p3616
F1.0
sa(dp3617
Vusage
p3618
F0.0
sVmetric
p3619
VPREEMPTIBLE_NVIDIA_P100_GPUS
p3620
sVlimit
p3621
F1.0
sa(dp3622
Vusage
p3623
F0.0
sVmetric
p3624
VNVIDIA_P100_VWS_GPUS
p3625
sVlimit
p3626
F1.0
sa(dp3627
Vusage
p3628
F0.0
sVmetric
p3629
VNVIDIA_V100_GPUS
p3630
sVlimit
p3631
F1.0
sa(dp3632
Vusage
p3633
F0.0
sVmetric
p3634
VNVIDIA_P4_GPUS
p3635
sVlimit
p3636
F1.0
sa(dp3637
Vusage
p3638
F0.0
sVmetric
p3639
VNVIDIA_P4_VWS_GPUS
p3640
sVlimit
p3641
F1.0
sa(dp3642
Vusage
p3643
F0.0
sVmetric
p3644
VPREEMPTIBLE_NVIDIA_V100_GPUS
p3645
sVlimit
p3646
F1.0
sa(dp3647
Vusage
p3648
F0.0
sVmetric
p3649
VPREEMPTIBLE_NVIDIA_P4_GPUS
p3650
sVlimit
p3651
F1.0
sa(dp3652
Vusage
p3653
F0.0
sVmetric
p3654
VPREEMPTIBLE_NVIDIA_P100_VWS_GPUS
p3655
sVlimit
p3656
F1.0
sa(dp3657
Vusage
p3658
F0.0
sVmetric
p3659
VPREEMPTIBLE_NVIDIA_P4_VWS_GPUS
p3660
sVlimit
p3661
F1.0
sa(dp3662
Vusage
p3663
F0.0
sVmetric
p3664
VINTERCONNECT_ATTACHMENTS_PER_REGION
p3665
sVlimit
p3666
F16.0
sa(dp3667
Vusage
p3668
F0.0
sVmetric
p3669
VINTERCONNECT_ATTACHMENTS_TOTAL_MBPS
p3670
sVlimit
p3671
F80000.0
sa(dp3672
Vusage
p3673
F0.0
sVmetric
p3674
VRESOURCE_POLICIES
p3675
sVlimit
p3676
F10.0
sa(dp3677
Vusage
p3678
F0.0
sVmetric
p3679
VIN_USE_BACKUP_SCHEDULES
p3680
sVlimit
p3681
F50.0
sa(dp3682
Vusage
p3683
F0.0
sVmetric
p3684
VNVIDIA_T4_GPUS
p3685
sVlimit
p3686
F1.0
sa(dp3687
Vusage
p3688
F0.0
sVmetric
p3689
VNVIDIA_T4_VWS_GPUS
p3690
sVlimit
p3691
F1.0
sa(dp3692
Vusage
p3693
F0.0
sVmetric
p3694
VPREEMPTIBLE_NVIDIA_T4_GPUS
p3695
sVlimit
p3696
F1.0
sa(dp3697
Vusage
p3698
F0.0
sVmetric
p3699
VPREEMPTIBLE_NVIDIA_T4_VWS_GPUS
p3700
sVlimit
p3701
F1.0
sasg264
(lp3702
g2
(g266
g4
Ntp3703
Rp3704
(dp3705
g10
VUP
p3706
sg271
Nsg52
Vus-east4-a
p3707
sg8
(dp3708
g274
Vhttps://www.googleapis.com/compute/v1/projects/libcloud-221521/regions/us-east4
p3709
sg77
V1969-12-31T16:00:00.000-08:00
p3710
sg79
Vus-east4-a
p3711
sg57
Vhttps://www.googleapis.com/compute/v1/projects/libcloud-221521/zones/us-east4-a
p3712
ssg17
Nsg60
g63
sg279
Vus
p3713
sg281
S'2270'
p3714
sbag2
(g266
g4
Ntp3715
Rp3716
(dp3717
g10
VUP
p3718
sg271
Nsg52
Vus-east4-b
p3719
sg8
(dp3720
g274
Vhttps://www.googleapis.com/compute/v1/projects/libcloud-221521/regions/us-east4
p3721
sg77
V1969-12-31T16:00:00.000-08:00
p3722
sg79
Vus-east4-b
p3723
sg57
Vhttps://www.googleapis.com/compute/v1/projects/libcloud-221521/zones/us-east4-b
p3724
ssg17
Nsg60
g63
sg279
Vus
p3725
sg281
S'2271'
p3726
sbag2
(g266
g4
Ntp3727
Rp3728
(dp3729
g10
VUP
p3730
sg271
Nsg52
Vus-east4-c
p3731
sg8
(dp3732
g274
Vhttps://www.googleapis.com/compute/v1/projects/libcloud-221521/regions/us-east4
p3733
sg77
V1969-12-31T16:00:00.000-08:00
p3734
sg79
Vus-east4-c
p3735
sg57
Vhttps://www.googleapis.com/compute/v1/projects/libcloud-221521/zones/us-east4-c
p3736
ssg17
Nsg60
g63
sg279
Vus
p3737
sg281
S'2272'
p3738
sbasg281
S'1270'
p3739
sbag2
(g70
g4
Ntp3740
Rp3741
(dp3742
g10
VUP
p3743
sg52
Vus-west1
p3744
sg8
(dp3745
g77
V1969-12-31T16:00:00.000-08:00
p3746
sg79
Vus-west1
p3747
sg57
Vhttps://www.googleapis.com/compute/v1/projects/libcloud-221521/regions/us-west1
p3748
ssg17
Nsg59
Nsg60
g63
sg82
(lp3749
(dp3750
Vusage
p3751
F0.0
sVmetric
p3752
VCPUS
p3753
sVlimit
p3754
F72.0
sa(dp3755
Vusage
p3756
F0.0
sVmetric
p3757
VDISKS_TOTAL_GB
p3758
sVlimit
p3759
F40960.0
sa(dp3760
Vusage
p3761
F0.0
sVmetric
p3762
VSTATIC_ADDRESSES
p3763
sVlimit
p3764
F21.0
sa(dp3765
Vusage
p3766
F0.0
sVmetric
p3767
VIN_USE_ADDRESSES
p3768
sVlimit
p3769
F69.0
sa(dp3770
Vusage
p3771
F0.0
sVmetric
p3772
VSSD_TOTAL_GB
p3773
sVlimit
p3774
F20480.0
sa(dp3775
Vusage
p3776
F0.0
sVmetric
p3777
VLOCAL_SSD_TOTAL_GB
p3778
sVlimit
p3779
F20000.0
sa(dp3780
Vusage
p3781
F0.0
sVmetric
p3782
VINSTANCE_GROUPS
p3783
sVlimit
p3784
F300.0
sa(dp3785
Vusage
p3786
F0.0
sVmetric
p3787
VINSTANCE_GROUP_MANAGERS
p3788
sVlimit
p3789
F150.0
sa(dp3790
Vusage
p3791
F0.0
sVmetric
p3792
VINSTANCES
p3793
sVlimit
p3794
F720.0
sa(dp3795
Vusage
p3796
F0.0
sVmetric
p3797
VAUTOSCALERS
p3798
sVlimit
p3799
F150.0
sa(dp3800
Vusage
p3801
F0.0
sVmetric
p3802
VREGIONAL_AUTOSCALERS
p3803
sVlimit
p3804
F100.0
sa(dp3805
Vusage
p3806
F0.0
sVmetric
p3807
VREGIONAL_INSTANCE_GROUP_MANAGERS
p3808
sVlimit
p3809
F100.0
sa(dp3810
Vusage
p3811
F0.0
sVmetric
p3812
VPREEMPTIBLE_CPUS
p3813
sVlimit
p3814
F0.0
sa(dp3815
Vusage
p3816
F0.0
sVmetric
p3817
VNVIDIA_K80_GPUS
p3818
sVlimit
p3819
F8.0
sa(dp3820
Vusage
p3821
F0.0
sVmetric
p3822
VCOMMITMENTS
p3823
sVlimit
p3824
F0.0
sa(dp3825
Vusage
p3826
F0.0
sVmetric
p3827
VINTERNAL_ADDRESSES
p3828
sVlimit
p3829
F200.0
sa(dp3830
Vusage
p3831
F0.0
sVmetric
p3832
VNVIDIA_P100_GPUS
p3833
sVlimit
p3834
F1.0
sa(dp3835
Vusage
p3836
F0.0
sVmetric
p3837
VPREEMPTIBLE_LOCAL_SSD_GB
p3838
sVlimit
p3839
F0.0
sa(dp3840
Vusage
p3841
F0.0
sVmetric
p3842
VPREEMPTIBLE_NVIDIA_K80_GPUS
p3843
sVlimit
p3844
F1.0
sa(dp3845
Vusage
p3846
F0.0
sVmetric
p3847
VPREEMPTIBLE_NVIDIA_P100_GPUS
p3848
sVlimit
p3849
F1.0
sa(dp3850
Vusage
p3851
F0.0
sVmetric
p3852
VNVIDIA_P100_VWS_GPUS
p3853
sVlimit
p3854
F1.0
sa(dp3855
Vusage
p3856
F0.0
sVmetric
p3857
VNVIDIA_V100_GPUS
p3858
sVlimit
p3859
F1.0
sa(dp3860
Vusage
p3861
F0.0
sVmetric
p3862
VNVIDIA_P4_GPUS
p3863
sVlimit
p3864
F1.0
sa(dp3865
Vusage
p3866
F0.0
sVmetric
p3867
VNVIDIA_P4_VWS_GPUS
p3868
sVlimit
p3869
F1.0
sa(dp3870
Vusage
p3871
F0.0
sVmetric
p3872
VPREEMPTIBLE_NVIDIA_V100_GPUS
p3873
sVlimit
p3874
F1.0
sa(dp3875
Vusage
p3876
F0.0
sVmetric
p3877
VPREEMPTIBLE_NVIDIA_P4_GPUS
p3878
sVlimit
p3879
F1.0
sa(dp3880
Vusage
p3881
F0.0
sVmetric
p3882
VPREEMPTIBLE_NVIDIA_P100_VWS_GPUS
p3883
sVlimit
p3884
F1.0
sa(dp3885
Vusage
p3886
F0.0
sVmetric
p3887
VPREEMPTIBLE_NVIDIA_P4_VWS_GPUS
p3888
sVlimit
p3889
F1.0
sa(dp3890
Vusage
p3891
F0.0
sVmetric
p3892
VINTERCONNECT_ATTACHMENTS_PER_REGION
p3893
sVlimit
p3894
F16.0
sa(dp3895
Vusage
p3896
F0.0
sVmetric
p3897
VINTERCONNECT_ATTACHMENTS_TOTAL_MBPS
p3898
sVlimit
p3899
F80000.0
sa(dp3900
Vusage
p3901
F0.0
sVmetric
p3902
VRESOURCE_POLICIES
p3903
sVlimit
p3904
F10.0
sa(dp3905
Vusage
p3906
F0.0
sVmetric
p3907
VIN_USE_BACKUP_SCHEDULES
p3908
sVlimit
p3909
F50.0
sa(dp3910
Vusage
p3911
F0.0
sVmetric
p3912
VNVIDIA_T4_GPUS
p3913
sVlimit
p3914
F1.0
sa(dp3915
Vusage
p3916
F0.0
sVmetric
p3917
VNVIDIA_T4_VWS_GPUS
p3918
sVlimit
p3919
F1.0
sa(dp3920
Vusage
p3921
F0.0
sVmetric
p3922
VPREEMPTIBLE_NVIDIA_T4_GPUS
p3923
sVlimit
p3924
F1.0
sa(dp3925
Vusage
p3926
F0.0
sVmetric
p3927
VPREEMPTIBLE_NVIDIA_T4_VWS_GPUS
p3928
sVlimit
p3929
F1.0
sasg264
(lp3930
g2
(g266
g4
Ntp3931
Rp3932
(dp3933
g10
VUP
p3934
sg271
Nsg52
Vus-west1-a
p3935
sg8
(dp3936
g274
Vhttps://www.googleapis.com/compute/v1/projects/libcloud-221521/regions/us-west1
p3937
sg77
V1969-12-31T16:00:00.000-08:00
p3938
sg79
Vus-west1-a
p3939
sg57
Vhttps://www.googleapis.com/compute/v1/projects/libcloud-221521/zones/us-west1-a
p3940
ssg17
Nsg60
g63
sg279
Vus
p3941
sg281
S'2210'
p3942
sbag2
(g266
g4
Ntp3943
Rp3944
(dp3945
g10
VUP
p3946
sg271
Nsg52
Vus-west1-b
p3947
sg8
(dp3948
g274
Vhttps://www.googleapis.com/compute/v1/projects/libcloud-221521/regions/us-west1
p3949
sg77
V1969-12-31T16:00:00.000-08:00
p3950
sg79
Vus-west1-b
p3951
sg57
Vhttps://www.googleapis.com/compute/v1/projects/libcloud-221521/zones/us-west1-b
p3952
ssg17
Nsg60
g63
sg279
Vus
p3953
sg281
S'2211'
p3954
sbag2
(g266
g4
Ntp3955
Rp3956
(dp3957
g10
VUP
p3958
sg271
Nsg52
Vus-west1-c
p3959
sg8
(dp3960
g274
Vhttps://www.googleapis.com/compute/v1/projects/libcloud-221521/regions/us-west1
p3961
sg77
V1969-12-31T16:00:00.000-08:00
p3962
sg79
Vus-west1-c
p3963
sg57
Vhttps://www.googleapis.com/compute/v1/projects/libcloud-221521/zones/us-west1-c
p3964
ssg17
Nsg60
g63
sg279
Vus
p3965
sg281
S'2212'
p3966
sbasg281
S'1210'
p3967
sbag2
(g70
g4
Ntp3968
Rp3969
(dp3970
g10
VUP
p3971
sg52
Vus-west2
p3972
sg8
(dp3973
g77
V1969-12-31T16:00:00.000-08:00
p3974
sg79
Vus-west2
p3975
sg57
Vhttps://www.googleapis.com/compute/v1/projects/libcloud-221521/regions/us-west2
p3976
ssg17
Nsg59
Nsg60
g63
sg82
(lp3977
(dp3978
Vusage
p3979
F0.0
sVmetric
p3980
VCPUS
p3981
sVlimit
p3982
F8.0
sa(dp3983
Vusage
p3984
F0.0
sVmetric
p3985
VDISKS_TOTAL_GB
p3986
sVlimit
p3987
F2048.0
sa(dp3988
Vusage
p3989
F0.0
sVmetric
p3990
VSTATIC_ADDRESSES
p3991
sVlimit
p3992
F1.0
sa(dp3993
Vusage
p3994
F0.0
sVmetric
p3995
VIN_USE_ADDRESSES
p3996
sVlimit
p3997
F8.0
sa(dp3998
Vusage
p3999
F0.0
sVmetric
p4000
VSSD_TOTAL_GB
p4001
sVlimit
p4002
F100.0
sa(dp4003
Vusage
p4004
F0.0
sVmetric
p4005
VLOCAL_SSD_TOTAL_GB
p4006
sVlimit
p4007
F1500.0
sa(dp4008
Vusage
p4009
F0.0
sVmetric
p4010
VINSTANCE_GROUPS
p4011
sVlimit
p4012
F100.0
sa(dp4013
Vusage
p4014
F0.0
sVmetric
p4015
VINSTANCE_GROUP_MANAGERS
p4016
sVlimit
p4017
F50.0
sa(dp4018
Vusage
p4019
F0.0
sVmetric
p4020
VINSTANCES
p4021
sVlimit
p4022
F80.0
sa(dp4023
Vusage
p4024
F0.0
sVmetric
p4025
VAUTOSCALERS
p4026
sVlimit
p4027
F50.0
sa(dp4028
Vusage
p4029
F0.0
sVmetric
p4030
VREGIONAL_AUTOSCALERS
p4031
sVlimit
p4032
F20.0
sa(dp4033
Vusage
p4034
F0.0
sVmetric
p4035
VREGIONAL_INSTANCE_GROUP_MANAGERS
p4036
sVlimit
p4037
F20.0
sa(dp4038
Vusage
p4039
F0.0
sVmetric
p4040
VPREEMPTIBLE_CPUS
p4041
sVlimit
p4042
F0.0
sa(dp4043
Vusage
p4044
F0.0
sVmetric
p4045
VNVIDIA_K80_GPUS
p4046
sVlimit
p4047
F1.0
sa(dp4048
Vusage
p4049
F0.0
sVmetric
p4050
VCOMMITMENTS
p4051
sVlimit
p4052
F0.0
sa(dp4053
Vusage
p4054
F0.0
sVmetric
p4055
VINTERNAL_ADDRESSES
p4056
sVlimit
p4057
F200.0
sa(dp4058
Vusage
p4059
F0.0
sVmetric
p4060
VNVIDIA_P100_GPUS
p4061
sVlimit
p4062
F1.0
sa(dp4063
Vusage
p4064
F0.0
sVmetric
p4065
VPREEMPTIBLE_LOCAL_SSD_GB
p4066
sVlimit
p4067
F0.0
sa(dp4068
Vusage
p4069
F0.0
sVmetric
p4070
VPREEMPTIBLE_NVIDIA_K80_GPUS
p4071
sVlimit
p4072
F1.0
sa(dp4073
Vusage
p4074
F0.0
sVmetric
p4075
VPREEMPTIBLE_NVIDIA_P100_GPUS
p4076
sVlimit
p4077
F1.0
sa(dp4078
Vusage
p4079
F0.0
sVmetric
p4080
VNVIDIA_P100_VWS_GPUS
p4081
sVlimit
p4082
F1.0
sa(dp4083
Vusage
p4084
F0.0
sVmetric
p4085
VNVIDIA_V100_GPUS
p4086
sVlimit
p4087
F1.0
sa(dp4088
Vusage
p4089
F0.0
sVmetric
p4090
VNVIDIA_P4_GPUS
p4091
sVlimit
p4092
F1.0
sa(dp4093
Vusage
p4094
F0.0
sVmetric
p4095
VNVIDIA_P4_VWS_GPUS
p4096
sVlimit
p4097
F1.0
sa(dp4098
Vusage
p4099
F0.0
sVmetric
p4100
VPREEMPTIBLE_NVIDIA_V100_GPUS
p4101
sVlimit
p4102
F1.0
sa(dp4103
Vusage
p4104
F0.0
sVmetric
p4105
VPREEMPTIBLE_NVIDIA_P4_GPUS
p4106
sVlimit
p4107
F1.0
sa(dp4108
Vusage
p4109
F0.0
sVmetric
p4110
VPREEMPTIBLE_NVIDIA_P100_VWS_GPUS
p4111
sVlimit
p4112
F1.0
sa(dp4113
Vusage
p4114
F0.0
sVmetric
p4115
VPREEMPTIBLE_NVIDIA_P4_VWS_GPUS
p4116
sVlimit
p4117
F1.0
sa(dp4118
Vusage
p4119
F0.0
sVmetric
p4120
VINTERCONNECT_ATTACHMENTS_PER_REGION
p4121
sVlimit
p4122
F16.0
sa(dp4123
Vusage
p4124
F0.0
sVmetric
p4125
VINTERCONNECT_ATTACHMENTS_TOTAL_MBPS
p4126
sVlimit
p4127
F80000.0
sa(dp4128
Vusage
p4129
F0.0
sVmetric
p4130
VRESOURCE_POLICIES
p4131
sVlimit
p4132
F5.0
sa(dp4133
Vusage
p4134
F0.0
sVmetric
p4135
VIN_USE_BACKUP_SCHEDULES
p4136
sVlimit
p4137
F20.0
sa(dp4138
Vusage
p4139
F0.0
sVmetric
p4140
VNVIDIA_T4_GPUS
p4141
sVlimit
p4142
F1.0
sa(dp4143
Vusage
p4144
F0.0
sVmetric
p4145
VNVIDIA_T4_VWS_GPUS
p4146
sVlimit
p4147
F1.0
sa(dp4148
Vusage
p4149
F0.0
sVmetric
p4150
VPREEMPTIBLE_NVIDIA_T4_GPUS
p4151
sVlimit
p4152
F1.0
sa(dp4153
Vusage
p4154
F0.0
sVmetric
p4155
VPREEMPTIBLE_NVIDIA_T4_VWS_GPUS
p4156
sVlimit
p4157
F1.0
sasg264
(lp4158
g2
(g266
g4
Ntp4159
Rp4160
(dp4161
g10
VUP
p4162
sg271
Nsg52
Vus-west2-c
p4163
sg8
(dp4164
g274
Vhttps://www.googleapis.com/compute/v1/projects/libcloud-221521/regions/us-west2
p4165
sg77
V1969-12-31T16:00:00.000-08:00
p4166
sg79
Vus-west2-c
p4167
sg57
Vhttps://www.googleapis.com/compute/v1/projects/libcloud-221521/zones/us-west2-c
p4168
ssg17
Nsg60
g63
sg279
Vus
p4169
sg281
S'2360'
p4170
sbag2
(g266
g4
Ntp4171
Rp4172
(dp4173
g10
VUP
p4174
sg271
Nsg52
Vus-west2-b
p4175
sg8
(dp4176
g274
Vhttps://www.googleapis.com/compute/v1/projects/libcloud-221521/regions/us-west2
p4177
sg77
V1969-12-31T16:00:00.000-08:00
p4178
sg79
Vus-west2-b
p4179
sg57
Vhttps://www.googleapis.com/compute/v1/projects/libcloud-221521/zones/us-west2-b
p4180
ssg17
Nsg60
g63
sg279
Vus
p4181
sg281
S'2361'
p4182
sbag2
(g266
g4
Ntp4183
Rp4184
(dp4185
g10
VUP
p4186
sg271
Nsg52
Vus-west2-a
p4187
sg8
(dp4188
g274
Vhttps://www.googleapis.com/compute/v1/projects/libcloud-221521/regions/us-west2
p4189
sg77
V1969-12-31T16:00:00.000-08:00
p4190
sg79
Vus-west2-a
p4191
sg57
Vhttps://www.googleapis.com/compute/v1/projects/libcloud-221521/zones/us-west2-a
p4192
ssg17
Nsg60
g63
sg279
Vus
p4193
sg281
S'2362'
p4194
sbasg281
S'1360'
p4195
sbasS'secure'
p4196
I01
sS'zone'
p4197
NsS'_ex_volume_dict'
p4198
(dp4199
sS'zone_list'
p4200
(lp4201
g3476
ag3488
ag3500
ag3728
ag3716
ag3704
ag3260
ag3236
ag3272
ag3248
ag3944
ag3956
ag3932
ag2576
ag2564
ag2552
ag1868
ag1892
ag1880
ag2348
ag2324
ag2336
ag2120
ag2108
ag2096
ag284
ag268
ag296
ag1196
ag1184
ag1208
ag740
ag752
ag728
ag980
ag956
ag968
ag1436
ag1412
ag1424
ag3020
ag3032
ag3008
ag524
ag512
ag500
ag1664
ag1640
ag1652
ag2780
ag2792
ag2804
ag4184
ag4172
ag4160
asg274
NsS'connection'
p4202
g2
(clibcloud.compute.drivers.gce
GCEConnection
p4203
g4
Ntp4204
Rp4205
(dp4206
S'key'
p4207
S'sjL9_2opO2s3wq9rogiLWnl-'
p4208
sS'context'
p4209
(dp4210
sS'user_id'
p4211
S'56940108935-d7fbj9uabjser872dfs5hh6o9smfoodm.apps.googleusercontent.com'
p4212
sg4196
I1
sS'data'
p4213
NsS'oauth2_credential'
p4214
g2
(clibcloud.common.google
GoogleOAuth2Credential
p4215
g4
Ntp4216
Rp4217
(dp4218
g65
g66
sg67
(lp4219
S'https://www.googleapis.com/auth/compute'
p4220
aS'https://www.googleapis.com/auth/devstorage.full_control'
p4221
aS'https://www.googleapis.com/auth/ndev.clouddns.readwrite'
p4222
asg4211
g4212
sS'oauth2_conn'
p4223
g2
(clibcloud.common.google
GoogleInstalledAppAuthConnection
p4224
g4
Ntp4225
Rp4226
(dp4227
g4207
g4208
sg67
S'https://www.googleapis.com/auth/compute https://www.googleapis.com/auth/devstorage.full_control https://www.googleapis.com/auth/ndev.clouddns.readwrite'
p4228
sS'proxy_url'
p4229
Nsg4211
g4212
sg4196
I1
sS'login_hint'
p4230
NsS'timeout'
p4231
NsS'backoff'
p4232
NsS'redirect_uri'
p4233
S'urn:ietf:wg:oauth:2.0:oob'
p4234
sg4209
(dp4235
sS'retry_delay'
p4236
NsS'ua'
p4237
(lp4238
sS'port'
p4239
I443
sS'request_path'
p4240
S''
p4241
sbsS'token'
p4242
(dp4243
Vaccess_token
p4244
Vya29.Gl2MBkOaES2nRBql7c98bo68a1Q6atKnS3rEMh_6Q041hbzp0j22DgAVe4AXBW-s4qO3D15sHYlARsSaUfN5tql_fLFIxleyLsPgZ2Ci-e8Wwhw7uc7A33OKPTjGc48
p4245
sVexpires_in
p4246
I3600
sVtoken_type
p4247
VBearer
p4248
sVexpire_time
p4249
V2019-01-09T21:51:12Z
p4250
sVscope
p4251
Vhttps://www.googleapis.com/auth/compute https://www.googleapis.com/auth/devstorage.full_control https://www.googleapis.com/auth/ndev.clouddns.readwrite
p4252
sVrefresh_token
p4253
V1/0Sk0rz6oamYoqOUhHWsh4f2zJRxAf9PtDiJ4asLAVhA
p4254
ssg4207
g4208
sS'credential_file'
p4255
S'~/.google_libcloud_auth.libcloud-221521'
p4256
sbsg4229
Nsg60
g63
sg4232
NsS'method'
p4257
S'GET'
p4258
sg4202
g2
(clibcloud.http
LibcloudConnection
p4259
g4
Ntp4260
Rp4261
(dp4262
S'verify'
p4263
I01
sS'host'
p4264
S'https://www.googleapis.com'
p4265
sS'session'
p4266
g2
(crequests.sessions
Session
p4267
g4
Ntp4268
Rp4269
(dp4270
S'cookies'
p4271
g2
(crequests.cookies
RequestsCookieJar
p4272
g4
Ntp4273
Rp4274
(dp4275
S'_now'
p4276
I1547068313
sS'_policy'
p4277
(icookielib
DefaultCookiePolicy
p4278
(dp4279
S'strict_rfc2965_unverifiable'
p4280
I01
sS'strict_ns_domain'
p4281
I0
sS'_allowed_domains'
p4282
NsS'rfc2109_as_netscape'
p4283
NsS'rfc2965'
p4284
I00
sS'strict_domain'
p4285
I00
sg4276
I1547068313
sS'strict_ns_set_path'
p4286
I00
sS'strict_ns_unverifiable'
p4287
I00
sS'strict_ns_set_initial_dollar'
p4288
I00
sS'hide_cookie2'
p4289
I00
sS'_blocked_domains'
p4290
(tsS'netscape'
p4291
I01
sbsS'_cookies'
p4292
(dp4293
sbsS'stream'
p4294
I00
sS'hooks'
p4295
(dp4296
S'response'
p4297
(lp4298
ssS'auth'
p4299
NsS'trust_env'
p4300
I01
sS'headers'
p4301
g2
(crequests.structures
CaseInsensitiveDict
p4302
g4
Ntp4303
Rp4304
(dp4305
S'_store'
p4306
ccollections
OrderedDict
p4307
((lp4308
(lp4309
S'connection'
p4310
a(S'Connection'
p4311
S'keep-alive'
p4312
tp4313
aa(lp4314
S'accept-encoding'
p4315
a(S'Accept-Encoding'
p4316
S'gzip, deflate'
p4317
tp4318
aa(lp4319
S'accept'
p4320
a(S'Accept'
p4321
S'*/*'
p4322
tp4323
aa(lp4324
S'user-agent'
p4325
a(S'User-Agent'
p4326
S'python-requests/2.21.0'
p4327
tp4328
aatp4329
Rp4330
sbsS'cert'
p4331
NsS'params'
p4332
(dp4333
sS'prefetch'
p4334
Nsg4263
I01
sS'proxies'
p4335
(dp4336
sS'adapters'
p4337
g4307
((lp4338
(lp4339
S'https://'
p4340
ag2
(crequests.adapters
HTTPAdapter
p4341
g4
Ntp4342
Rp4343
(dp4344
S'_pool_block'
p4345
I00
sS'_pool_maxsize'
p4346
I10
sS'max_retries'
p4347
g2
(curllib3.util.retry
Retry
p4348
g4
Ntp4349
Rp4350
(dp4351
g10
NsS'redirect'
p4352
NsS'remove_headers_on_redirect'
p4353
c__builtin__
frozenset
p4354
((lp4355
S'Authorization'
p4356
atp4357
Rp4358
sS'read'
p4359
I00
sS'backoff_factor'
p4360
I0
sS'respect_retry_after_header'
p4361
I01
sS'history'
p4362
(tsS'raise_on_status'
p4363
I01
sS'connect'
p4364
NsS'status_forcelist'
p4365
c__builtin__
set
p4366
((lp4367
tp4368
Rp4369
sS'total'
p4370
I0
sS'raise_on_redirect'
p4371
I01
sS'method_whitelist'
p4372
g4354
((lp4373
S'HEAD'
p4374
aS'TRACE'
p4375
ag4258
aS'PUT'
p4376
aS'OPTIONS'
p4377
aS'DELETE'
p4378
atp4379
Rp4380
sbsS'config'
p4381
(dp4382
sS'_pool_connections'
p4383
I10
sbaa(lp4384
S'http://'
p4385
ag2
(g4341
g4
Ntp4386
Rp4387
(dp4388
g4345
I00
sg4346
I10
sg4347
g2
(g4348
g4
Ntp4389
Rp4390
(dp4391
g10
Nsg4352
Nsg4353
g4358
sg4359
I00
sg4360
I0
sg4361
I01
sg4362
(tsg4363
I01
sg4364
Nsg4365
g4366
((lp4392
tp4393
Rp4394
sg4370
I0
sg4371
I01
sg4372
g4380
sbsg4381
(dp4395
sg4383
I10
sbaatp4396
Rp4397
sS'max_redirects'
p4398
I30
sbsg4297
g2
(crequests.models
Response
p4399
g4
Ntp4400
Rp4401
(dp4402
g4271
g2
(g4272
g4
Ntp4403
Rp4404
(dp4405
g4276
I1547068313
sg4277
(icookielib
DefaultCookiePolicy
p4406
(dp4407
g4280
I01
sg4281
I0
sg4282
Nsg4283
Nsg4284
I00
sg4285
I00
sg4276
I1547068313
sg4286
I00
sg4287
I00
sg4288
I00
sg4289
I00
sg4290
(tsg4291
I01
sbsg4292
(dp4408
sbsS'_content'
p4409
S'{\n "kind": "compute#license",\n "name": "sql-server-2014-standard",\n "chargesUseFee": true,\n "id": "3705777654507911764",\n "licenseCode": "1000215",\n "creationTimestamp": "2016-05-02T14:35:54.000-07:00",\n "description": "SQL Server 2014 Standard",\n "transferable": true,\n "selfLink": "https://www.googleapis.com/compute/v1/projects/windows-sql-cloud/global/licenses/sql-server-2014-standard"\n}\n'
p4410
sS'encoding'
p4411
S'UTF-8'
p4412
sS'url'
p4413
Vhttps://www.googleapis.com/compute/v1/projects/windows-sql-cloud/global/licenses/sql-server-2014-standard
p4414
sS'status_code'
p4415
I200
sS'request'
p4416
g2
(crequests.models
PreparedRequest
p4417
g4
Ntp4418
Rp4419
(dp4420
S'body'
p4421
Nsg4413
S'https://www.googleapis.com/compute/v1/projects/windows-sql-cloud/global/licenses/sql-server-2014-standard'
p4422
sg4295
(dp4423
g4297
(lp4424
ssg4301
g2
(g4302
g4
Ntp4425
Rp4426
(dp4427
g4306
g4307
((lp4428
(lp4429
S'connection'
p4430
a(g4311
g4312
tp4431
aa(lp4432
S'accept-encoding'
p4433
a(S'Accept-Encoding'
p4434
S'gzip,deflate'
p4435
tp4436
aa(lp4437
S'accept'
p4438
a(g4321
g4322
tp4439
aa(lp4440
S'user-agent'
p4441
a(S'User-Agent'
p4442
S'libcloud/2.4.0 (Google Compute Engine) (Python 2.7.10/darwin)'
p4443
tp4444
aa(lp4445
S'host'
p4446
a(S'Host'
p4447
S'www.googleapis.com'
p4448
tp4449
aa(lp4450
S'content-type'
p4451
a(S'Content-Type'
p4452
S'application/json'
p4453
tp4454
aa(lp4455
S'authorization'
p4456
a(g4356
VBearer ya29.Gl2MBkOaES2nRBql7c98bo68a1Q6atKnS3rEMh_6Q041hbzp0j22DgAVe4AXBW-s4qO3D15sHYlARsSaUfN5tql_fLFIxleyLsPgZ2Ci-e8Wwhw7uc7A33OKPTjGc48
p4457
tp4458
aatp4459
Rp4460
sbsS'_body_position'
p4461
Nsg4292
g2
(g4272
g4
Ntp4462
Rp4463
(dp4464
g4276
I1547068312
sg4277
(icookielib
DefaultCookiePolicy
p4465
(dp4466
g4280
I01
sg4281
I0
sg4282
Nsg4283
Nsg4284
I00
sg4285
I00
sg4276
I1547068312
sg4286
I00
sg4287
I00
sg4288
I00
sg4289
I00
sg4290
(tsg4291
I01
sbsg4292
(dp4467
sbsg4257
S'GET'
p4468
sbsS'elapsed'
p4469
cdatetime
timedelta
p4470
(I0
I0
I224589
tp4471
Rp4472
sg4301
g2
(g4302
g4
Ntp4473
Rp4474
(dp4475
g4306
g4307
((lp4476
(lp4477
S'expires'
p4478
a(S'Expires'
p4479
S'Wed, 09 Jan 2019 21:11:53 GMT'
p4480
tp4481
aa(lp4482
S'date'
p4483
a(S'Date'
p4484
S'Wed, 09 Jan 2019 21:11:53 GMT'
p4485
tp4486
aa(lp4487
S'cache-control'
p4488
a(S'Cache-Control'
p4489
S'private, max-age=0, must-revalidate, no-transform'
p4490
tp4491
aa(lp4492
S'etag'
p4493
a(S'ETag'
p4494
S'"TTqTEFqHqmRivJw9AOS9GWgopE8=/kBEIJ8i3BjwnhG7W0Xs6VwGZlG0="'
p4495
tp4496
aa(lp4497
S'vary'
p4498
a(S'Vary'
p4499
S'Origin, X-Origin'
p4500
tp4501
aa(lp4502
S'content-type'
p4503
a(S'Content-Type'
p4504
S'application/json; charset=UTF-8'
p4505
tp4506
aa(lp4507
S'content-encoding'
p4508
a(S'Content-Encoding'
p4509
S'gzip'
p4510
tp4511
aa(lp4512
S'x-content-type-options'
p4513
a(S'X-Content-Type-Options'
p4514
S'nosniff'
p4515
tp4516
aa(lp4517
S'x-frame-options'
p4518
a(S'X-Frame-Options'
p4519
S'SAMEORIGIN'
p4520
tp4521
aa(lp4522
S'x-xss-protection'
p4523
a(S'X-XSS-Protection'
p4524
S'1; mode=block'
p4525
tp4526
aa(lp4527
S'server'
p4528
a(S'Server'
p4529
S'GSE'
p4530
tp4531
aa(lp4532
S'alt-svc'
p4533
a(S'Alt-Svc'
p4534
S'quic=":443"; ma=2592000; v="44,43,39,35"'
p4535
tp4536
aa(lp4537
S'transfer-encoding'
p4538
a(S'Transfer-Encoding'
p4539
S'chunked'
p4540
tp4541
aatp4542
Rp4543
sbsS'reason'
p4544
S'OK'
p4545
sg4362
(lp4546
sbsS'ca_cert'
p4547
S'/Users/bcnickerson/PycharmProjects/multi-cloud2/venv/lib/python2.7/site-packages/certifi/cacert.pem'
p4548
sbsg4231
I180
sS'action'
p4549
V/compute/v1/projects/windows-sql-cloud/global/licenses/sql-server-2014-standard
p4550
sg4236
NsS'gce_params'
p4551
Nsg4237
(lp4552
S'Python 2.7.10/darwin'
p4553
asg4239
I443
sg4240
S'/compute/v1/projects/libcloud-221521'
p4554
sbsS'base_path'
p4555
S'/compute/v1/projects/libcloud-221521'
p4556
sS'project'
p4557
S'libcloud-221521'
p4558
sS'secret'
p4559
g4208
sS'zone_dict'
p4560
(dp4561
g3011
g3008
sg3035
g3032
sg3023
g3020
sg3935
g3932
sg3947
g3944
sg3959
g3956
sg3731
g3728
sg3719
g3716
sg3707
g3704
sg2555
g2552
sg2567
g2564
sg2579
g2576
sg2783
g2780
sg2807
g2804
sg2795
g2792
sg1655
g1652
sg1187
g1184
sg1199
g1196
sg1211
g1208
sg2339
g2336
sg2351
g2348
sg2327
g2324
sg2099
g2096
sg2123
g2120
sg2111
g2108
sg1415
g1412
sg3275
g3272
sg1427
g1424
sg3263
g3260
sg3251
g3248
sg3239
g3236
sg959
g956
sg743
g740
sg755
g752
sg731
g728
sg287
g284
sg299
g296
sg272
g268
sg4163
g4160
sg527
g524
sg1667
g1664
sg503
g500
sg515
g512
sg4187
g4184
sg1439
g1436
sg3479
g3476
sg3491
g3488
sg1895
g1892
sg1643
g1640
sg1871
g1868
sg1883
g1880
sg3503
g3500
sg971
g968
sg983
g980
sg4175
g4172
ssg4207
g4212
sg4255
g4256
sS'region_dict'
p4562
(dp4563
g1224
g1221
sg1680
g1677
sg312
g309
sg2136
g2133
sg3516
g3513
sg75
g72
sg2364
g2361
sg3288
g3285
sg1452
g1449
sg1908
g1905
sg3048
g3045
sg768
g765
sg3744
g3741
sg3972
g3969
sg2592
g2589
sg996
g993
sg540
g537
sg2820
g2817
ssS'api_version'
p4564
Nsbsg4557
Vwindows-sql-cloud
p4565
sS'charges_use_fee'
p4566
I01
sg281
g53
sbag2
(g48
g4
Ntp4567
Rp4568
(dp4569
g52
Vwindows-server-2012-r2-dc
p4570
sg8
(dp4571
g55
Vcompute#license
p4572
sg57
Vhttps://www.googleapis.com/compute/v1/projects/windows-cloud/global/licenses/windows-server-2012-r2-dc
p4573
ssg59
Nsg60
g63
sg4557
Vwindows-cloud
p4574
sg4566
I01
sg281
g4570
sbasg77
V2018-11-15T20:03:59.828-08:00
p4575
sg57
Vhttps://www.googleapis.com/compute/v1/projects/windows-sql-cloud/global/images/sql-2014-standard-windows-2012-r2-dc-v20181113
p4576
sg79
VMicrosoft, SQL Server 2014 Standard, on Windows Server 2012 R2 Datacenter, x64 built on 20181113
p4577
ssg60
g63
sg281
S'2496640220540436288'
p4578
sg59
Nsg52
Vsql-2014-standard-windows-2012-r2-dc-v20181113
p4579
sbsS'unix'
p4580
g2
(g3
g4
Ntp4581
Rp4582
(dp4583
g8
(dp4584
g10
VREADY
p4585
sg12
Nsg13
VRAW
p4586
sg15
Vubuntu-1404-lts
p4587
sg17
(dp4588
Vstate
p4589
VDEPRECATED
p4590
sVreplacement
p4591
Vhttps://www.googleapis.com/compute/v1/projects/ubuntu-os-cloud/global/images/ubuntu-1404-trusty-v20190108
p4592
ssg23
V42WmSpB8rSM=
p4593
sg25
(dp4594
VcontainerType
p4595
VTAR
p4596
sVsource
p4597
g30
ssg31
V7370915328
p4598
sg33
(lp4599
(dp4600
Vtype
p4601
VVIRTIO_SCSI_MULTIQUEUE
p4602
sasg44
V10
p4603
sg46
(lp4604
g2
(g48
g4
Ntp4605
Rp4606
(dp4607
g52
Vubuntu-1404-trusty
p4608
sg8
(dp4609
g55
Vcompute#license
p4610
sg57
Vhttps://www.googleapis.com/compute/v1/projects/ubuntu-os-cloud/global/licenses/ubuntu-1404-trusty
p4611
ssg59
Nsg60
g63
sg4557
Vubuntu-os-cloud
p4612
sg4566
I01
sg281
g4608
sbasg77
V2018-11-15T01:14:55.475-08:00
p4613
sg57
Vhttps://www.googleapis.com/compute/v1/projects/ubuntu-os-cloud/global/images/ubuntu-1404-trusty-v20181114
p4614
sg79
VCanonical, Ubuntu, 14.04 LTS, amd64 trusty image built on 2018-11-14
p4615
ssg60
g63
sg281
S'6378320143839168480'
p4616
sg59
Nsg52
Vubuntu-1404-trusty-v20181114
p4617
sbsS'rhel'
p4618
g2
(g3
g4
Ntp4619
Rp4620
(dp4621
g8
(dp4622
g10
VREADY
p4623
sg12
Nsg13
VRAW
p4624
sg15
Vrhel-6
p4625
sg17
(dp4626
Vstate
p4627
VDEPRECATED
p4628
sVreplacement
p4629
Vhttps://www.googleapis.com/compute/v1/projects/rhel-cloud/global/images/rhel-6-v20181210
p4630
ssg23
V42WmSpB8rSM=
p4631
sg25
(dp4632
VcontainerType
p4633
VTAR
p4634
sVsource
p4635
g30
ssg31
V17118249984
p4636
sg44
V10
p4637
sg46
(lp4638
g2
(g48
g4
Ntp4639
Rp4640
(dp4641
g52
Vrhel-6-server
p4642
sg8
(dp4643
g55
Vcompute#license
p4644
sg57
Vhttps://www.googleapis.com/compute/v1/projects/rhel-cloud/global/licenses/rhel-6-server
p4645
ssg59
Nsg60
g63
sg4557
Vrhel-cloud
p4646
sg4566
I01
sg281
g4642
sbasg77
V2018-11-14T10:49:04.485-08:00
p4647
sg57
Vhttps://www.googleapis.com/compute/v1/projects/rhel-cloud/global/images/rhel-6-v20181113
p4648
sg79
VRed Hat, Red Hat Enterprise Linux, 6, x86_64 built on 20181113
p4649
ssg60
g63
sg281
S'1939708143365902576'
p4650
sg59
Nsg52
Vrhel-6-v20181113
p4651
sbsS'linux'
p4652
g2
(g3
g4
Ntp4653
Rp4654
(dp4655
g8
(dp4656
g10
VREADY
p4657
sg15
Vsles-12-sp2-sap
p4658
sg79
VSUSE, SUSE Linux Enterprise Server 12 SP2 For SAP, x86_64, built on 2018-08-16
p4659
sg25
(dp4660
VcontainerType
p4661
VTAR
p4662
sVsource
p4663
g30
ssg23
V42WmSpB8rSM=
p4664
sg12
Nsg31
V11549784768
p4665
sg44
V10
p4666
sg46
(lp4667
g2
(g48
g4
Ntp4668
Rp4669
(dp4670
g52
Vsles-sap-12
p4671
sg8
(dp4672
g55
Vcompute#license
p4673
sg57
Vhttps://www.googleapis.com/compute/v1/projects/suse-sap-cloud/global/licenses/sles-sap-12
p4674
ssg59
Nsg60
g63
sg4557
Vsuse-sap-cloud
p4675
sg4566
I00
sg281
g4671
sbasg77
V2018-08-16T12:59:27.949-07:00
p4676
sg57
Vhttps://www.googleapis.com/compute/v1/projects/suse-sap-cloud/global/images/sles-12-sp2-sap-v20180816
p4677
sg13
VRAW
p4678
ssg60
g63
sg281
S'685306792176544112'
p4679
sg59
Nsg52
Vsles-12-sp2-sap-v20180816
p4680
sbs.