(dp0
S'win'
p1
ccopy_reg
_reconstructor
p2
(clibcloud.compute.drivers.gce
GCENodeImage
p3
c__builtin__
object
p4
Ntp5
Rp6
(dp7
S'extra'
p8
(dp9
S'status'
p10
VREADY
p11
sS'family'
p12
Vsql-std-2014-win-2012-r2
p13
sS'description'
p14
VMicrosoft, SQL Server 2014 Standard, on Windows Server 2012 R2 Datacenter, x64 built on 20181113
p15
sS'rawDisk'
p16
(dp17
VcontainerType
p18
VTAR
p19
sVsource
p20
V
p21
ssS'labelFingerprint'
p22
V42WmSpB8rSM=
p23
sS'labels'
p24
NsS'archiveSizeBytes'
p25
V297787848192
p26
sS'guestOsFeatures'
p27
(lp28
(dp29
Vtype
p30
VMULTI_IP_SUBNET
p31
sa(dp32
Vtype
p33
VWINDOWS
p34
sa(dp35
Vtype
p36
VVIRTIO_SCSI_MULTIQUEUE
p37
sasS'diskSizeGb'
p38
V50
p39
sS'licenses'
p40
(lp41
g2
(clibcloud.compute.drivers.gce
GCELicense
p42
g4
Ntp43
Rp44
(dp45
S'name'
p46
Vsql-server-2014-standard
p47
sg8
(dp48
S'kind'
p49
Vcompute#license
p50
sS'selfLink'
p51
Vhttps://www.googleapis.com/compute/v1/projects/windows-sql-cloud/global/licenses/sql-server-2014-standard
p52
ssS'_uuid'
p53
NsS'driver'
p54
g2
(clibcloud.compute.drivers.gce
GCENodeDriver
p55
g4
Ntp56
Rp57
(dp58
S'auth_type'
p59
S'IA'
p60
sS'scopes'
p61
NsS'region_list'
p62
(lp63
g2
(clibcloud.compute.drivers.gce
GCERegion
p64
g4
Ntp65
Rp66
(dp67
g10
VUP
p68
sg46
Vasia-east1
p69
sg8
(dp70
S'creationTimestamp'
p71
V1969-12-31T16:00:00.000-08:00
p72
sg14
Vasia-east1
p73
sg51
Vhttps://www.googleapis.com/compute/v1/projects/libcloud-221521/regions/asia-east1
p74
ssS'deprecated'
p75
Nsg53
Nsg54
g57
sS'quotas'
p76
(lp77
(dp78
Vusage
p79
F0.0
sVmetric
p80
VCPUS
p81
sVlimit
p82
F72.0
sa(dp83
Vusage
p84
F0.0
sVmetric
p85
VDISKS_TOTAL_GB
p86
sVlimit
p87
F40960.0
sa(dp88
Vusage
p89
F0.0
sVmetric
p90
VSTATIC_ADDRESSES
p91
sVlimit
p92
F21.0
sa(dp93
Vusage
p94
F0.0
sVmetric
p95
VIN_USE_ADDRESSES
p96
sVlimit
p97
F69.0
sa(dp98
Vusage
p99
F0.0
sVmetric
p100
VSSD_TOTAL_GB
p101
sVlimit
p102
F20480.0
sa(dp103
Vusage
p104
F0.0
sVmetric
p105
VLOCAL_SSD_TOTAL_GB
p106
sVlimit
p107
F20000.0
sa(dp108
Vusage
p109
F0.0
sVmetric
p110
VINSTANCE_GROUPS
p111
sVlimit
p112
F300.0
sa(dp113
Vusage
p114
F0.0
sVmetric
p115
VINSTANCE_GROUP_MANAGERS
p116
sVlimit
p117
F150.0
sa(dp118
Vusage
p119
F0.0
sVmetric
p120
VINSTANCES
p121
sVlimit
p122
F720.0
sa(dp123
Vusage
p124
F0.0
sVmetric
p125
VAUTOSCALERS
p126
sVlimit
p127
F150.0
sa(dp128
Vusage
p129
F0.0
sVmetric
p130
VREGIONAL_AUTOSCALERS
p131
sVlimit
p132
F100.0
sa(dp133
Vusage
p134
F0.0
sVmetric
p135
VREGIONAL_INSTANCE_GROUP_MANAGERS
p136
sVlimit
p137
F100.0
sa(dp138
Vusage
p139
F0.0
sVmetric
p140
VPREEMPTIBLE_CPUS
p141
sVlimit
p142
F0.0
sa(dp143
Vusage
p144
F0.0
sVmetric
p145
VNVIDIA_K80_GPUS
p146
sVlimit
p147
F8.0
sa(dp148
Vusage
p149
F0.0
sVmetric
p150
VCOMMITMENTS
p151
sVlimit
p152
F0.0
sa(dp153
Vusage
p154
F0.0
sVmetric
p155
VINTERNAL_ADDRESSES
p156
sVlimit
p157
F200.0
sa(dp158
Vusage
p159
F0.0
sVmetric
p160
VNVIDIA_P100_GPUS
p161
sVlimit
p162
F1.0
sa(dp163
Vusage
p164
F0.0
sVmetric
p165
VPREEMPTIBLE_LOCAL_SSD_GB
p166
sVlimit
p167
F0.0
sa(dp168
Vusage
p169
F0.0
sVmetric
p170
VPREEMPTIBLE_NVIDIA_K80_GPUS
p171
sVlimit
p172
F1.0
sa(dp173
Vusage
p174
F0.0
sVmetric
p175
VPREEMPTIBLE_NVIDIA_P100_GPUS
p176
sVlimit
p177
F1.0
sa(dp178
Vusage
p179
F0.0
sVmetric
p180
VNVIDIA_P100_VWS_GPUS
p181
sVlimit
p182
F1.0
sa(dp183
Vusage
p184
F0.0
sVmetric
p185
VNVIDIA_V100_GPUS
p186
sVlimit
p187
F1.0
sa(dp188
Vusage
p189
F0.0
sVmetric
p190
VNVIDIA_P4_GPUS
p191
sVlimit
p192
F1.0
sa(dp193
Vusage
p194
F0.0
sVmetric
p195
VNVIDIA_P4_VWS_GPUS
p196
sVlimit
p197
F1.0
sa(dp198
Vusage
p199
F0.0
sVmetric
p200
VPREEMPTIBLE_NVIDIA_V100_GPUS
p201
sVlimit
p202
F1.0
sa(dp203
Vusage
p204
F0.0
sVmetric
p205
VPREEMPTIBLE_NVIDIA_P4_GPUS
p206
sVlimit
p207
F1.0
sa(dp208
Vusage
p209
F0.0
sVmetric
p210
VPREEMPTIBLE_NVIDIA_P100_VWS_GPUS
p211
sVlimit
p212
F1.0
sa(dp213
Vusage
p214
F0.0
sVmetric
p215
VPREEMPTIBLE_NVIDIA_P4_VWS_GPUS
p216
sVlimit
p217
F1.0
sa(dp218
Vusage
p219
F0.0
sVmetric
p220
VINTERCONNECT_ATTACHMENTS_PER_REGION
p221
sVlimit
p222
F16.0
sa(dp223
Vusage
p224
F0.0
sVmetric
p225
VINTERCONNECT_ATTACHMENTS_TOTAL_MBPS
p226
sVlimit
p227
F80000.0
sa(dp228
Vusage
p229
F0.0
sVmetric
p230
VRESOURCE_POLICIES
p231
sVlimit
p232
F10.0
sa(dp233
Vusage
p234
F0.0
sVmetric
p235
VIN_USE_BACKUP_SCHEDULES
p236
sVlimit
p237
F50.0
sa(dp238
Vusage
p239
F0.0
sVmetric
p240
VNVIDIA_T4_GPUS
p241
sVlimit
p242
F1.0
sa(dp243
Vusage
p244
F0.0
sVmetric
p245
VNVIDIA_T4_VWS_GPUS
p246
sVlimit
p247
F1.0
sa(dp248
Vusage
p249
F0.0
sVmetric
p250
VPREEMPTIBLE_NVIDIA_T4_GPUS
p251
sVlimit
p252
F1.0
sa(dp253
Vusage
p254
F0.0
sVmetric
p255
VPREEMPTIBLE_NVIDIA_T4_VWS_GPUS
p256
sVlimit
p257
F1.0
sasS'zones'
p258
(lp259
g2
(clibcloud.compute.drivers.gce
GCEZone
p260
g4
Ntp261
Rp262
(dp263
g10
VUP
p264
sS'maintenance_windows'
p265
Nsg46
Vasia-east1-a
p266
sg8
(dp267
S'region'
p268
Vhttps://www.googleapis.com/compute/v1/projects/libcloud-221521/regions/asia-east1
p269
sg71
V1969-12-31T16:00:00.000-08:00
p270
sg14
Vasia-east1-a
p271
sg51
Vhttps://www.googleapis.com/compute/v1/projects/libcloud-221521/zones/asia-east1-a
p272
ssg75
Nsg54
g57
sS'country'
p273
Vasia
p274
sS'id'
p275
S'2220'
p276
sbag2
(g260
g4
Ntp277
Rp278
(dp279
g10
VUP
p280
sg265
Nsg46
Vasia-east1-b
p281
sg8
(dp282
g268
Vhttps://www.googleapis.com/compute/v1/projects/libcloud-221521/regions/asia-east1
p283
sg71
V1969-12-31T16:00:00.000-08:00
p284
sg14
Vasia-east1-b
p285
sg51
Vhttps://www.googleapis.com/compute/v1/projects/libcloud-221521/zones/asia-east1-b
p286
ssg75
Nsg54
g57
sg273
Vasia
p287
sg275
S'2221'
p288
sbag2
(g260
g4
Ntp289
Rp290
(dp291
g10
VUP
p292
sg265
Nsg46
Vasia-east1-c
p293
sg8
(dp294
g268
Vhttps://www.googleapis.com/compute/v1/projects/libcloud-221521/regions/asia-east1
p295
sg71
V1969-12-31T16:00:00.000-08:00
p296
sg14
Vasia-east1-c
p297
sg51
Vhttps://www.googleapis.com/compute/v1/projects/libcloud-221521/zones/asia-east1-c
p298
ssg75
Nsg54
g57
sg273
Vasia
p299
sg275
S'2222'
p300
sbasg275
S'1220'
p301
sbag2
(g64
g4
Ntp302
Rp303
(dp304
g10
VUP
p305
sg46
Vasia-east2
p306
sg8
(dp307
g71
V1969-12-31T16:00:00.000-08:00
p308
sg14
Vasia-east2
p309
sg51
Vhttps://www.googleapis.com/compute/v1/projects/libcloud-221521/regions/asia-east2
p310
ssg75
Nsg53
Nsg54
g57
sg76
(lp311
(dp312
Vusage
p313
F0.0
sVmetric
p314
VCPUS
p315
sVlimit
p316
F8.0
sa(dp317
Vusage
p318
F0.0
sVmetric
p319
VDISKS_TOTAL_GB
p320
sVlimit
p321
F2048.0
sa(dp322
Vusage
p323
F0.0
sVmetric
p324
VSTATIC_ADDRESSES
p325
sVlimit
p326
F1.0
sa(dp327
Vusage
p328
F0.0
sVmetric
p329
VIN_USE_ADDRESSES
p330
sVlimit
p331
F8.0
sa(dp332
Vusage
p333
F0.0
sVmetric
p334
VSSD_TOTAL_GB
p335
sVlimit
p336
F100.0
sa(dp337
Vusage
p338
F0.0
sVmetric
p339
VLOCAL_SSD_TOTAL_GB
p340
sVlimit
p341
F1500.0
sa(dp342
Vusage
p343
F0.0
sVmetric
p344
VINSTANCE_GROUPS
p345
sVlimit
p346
F100.0
sa(dp347
Vusage
p348
F0.0
sVmetric
p349
VINSTANCE_GROUP_MANAGERS
p350
sVlimit
p351
F50.0
sa(dp352
Vusage
p353
F0.0
sVmetric
p354
VINSTANCES
p355
sVlimit
p356
F80.0
sa(dp357
Vusage
p358
F0.0
sVmetric
p359
VAUTOSCALERS
p360
sVlimit
p361
F50.0
sa(dp362
Vusage
p363
F0.0
sVmetric
p364
VREGIONAL_AUTOSCALERS
p365
sVlimit
p366
F20.0
sa(dp367
Vusage
p368
F0.0
sVmetric
p369
VREGIONAL_INSTANCE_GROUP_MANAGERS
p370
sVlimit
p371
F20.0
sa(dp372
Vusage
p373
F0.0
sVmetric
p374
VPREEMPTIBLE_CPUS
p375
sVlimit
p376
F0.0
sa(dp377
Vusage
p378
F0.0
sVmetric
p379
VNVIDIA_K80_GPUS
p380
sVlimit
p381
F1.0
sa(dp382
Vusage
p383
F0.0
sVmetric
p384
VCOMMITMENTS
p385
sVlimit
p386
F0.0
sa(dp387
Vusage
p388
F0.0
sVmetric
p389
VINTERNAL_ADDRESSES
p390
sVlimit
p391
F200.0
sa(dp392
Vusage
p393
F0.0
sVmetric
p394
VNVIDIA_P100_GPUS
p395
sVlimit
p396
F1.0
sa(dp397
Vusage
p398
F0.0
sVmetric
p399
VPREEMPTIBLE_LOCAL_SSD_GB
p400
sVlimit
p401
F0.0
sa(dp402
Vusage
p403
F0.0
sVmetric
p404
VPREEMPTIBLE_NVIDIA_K80_GPUS
p405
sVlimit
p406
F1.0
sa(dp407
Vusage
p408
F0.0
sVmetric
p409
VPREEMPTIBLE_NVIDIA_P100_GPUS
p410
sVlimit
p411
F1.0
sa(dp412
Vusage
p413
F0.0
sVmetric
p414
VNVIDIA_P100_VWS_GPUS
p415
sVlimit
p416
F1.0
sa(dp417
Vusage
p418
F0.0
sVmetric
p419
VNVIDIA_V100_GPUS
p420
sVlimit
p421
F1.0
sa(dp422
Vusage
p423
F0.0
sVmetric
p424
VNVIDIA_P4_GPUS
p425
sVlimit
p426
F1.0
sa(dp427
Vusage
p428
F0.0
sVmetric
p429
VNVIDIA_P4_VWS_GPUS
p430
sVlimit
p431
F1.0
sa(dp432
Vusage
p433
F0.0
sVmetric
p434
VPREEMPTIBLE_NVIDIA_V100_GPUS
p435
sVlimit
p436
F1.0
sa(dp437
Vusage
p438
F0.0
sVmetric
p439
VPREEMPTIBLE_NVIDIA_P4_GPUS
p440
sVlimit
p441
F1.0
sa(dp442
Vusage
p443
F0.0
sVmetric
p444
VPREEMPTIBLE_NVIDIA_P100_VWS_GPUS
p445
sVlimit
p446
F1.0
sa(dp447
Vusage
p448
F0.0
sVmetric
p449
VPREEMPTIBLE_NVIDIA_P4_VWS_GPUS
p450
sVlimit
p451
F1.0
sa(dp452
Vusage
p453
F0.0
sVmetric
p454
VINTERCONNECT_ATTACHMENTS_PER_REGION
p455
sVlimit
p456
F16.0
sa(dp457
Vusage
p458
F0.0
sVmetric
p459
VINTERCONNECT_ATTACHMENTS_TOTAL_MBPS
p460
sVlimit
p461
F80000.0
sa(dp462
Vusage
p463
F0.0
sVmetric
p464
VRESOURCE_POLICIES
p465
sVlimit
p466
F5.0
sa(dp467
Vusage
p468
F0.0
sVmetric
p469
VIN_USE_BACKUP_SCHEDULES
p470
sVlimit
p471
F20.0
sa(dp472
Vusage
p473
F0.0
sVmetric
p474
VNVIDIA_T4_GPUS
p475
sVlimit
p476
F1.0
sa(dp477
Vusage
p478
F0.0
sVmetric
p479
VNVIDIA_T4_VWS_GPUS
p480
sVlimit
p481
F1.0
sa(dp482
Vusage
p483
F0.0
sVmetric
p484
VPREEMPTIBLE_NVIDIA_T4_GPUS
p485
sVlimit
p486
F1.0
sa(dp487
Vusage
p488
F0.0
sVmetric
p489
VPREEMPTIBLE_NVIDIA_T4_VWS_GPUS
p490
sVlimit
p491
F1.0
sasg258
(lp492
g2
(g260
g4
Ntp493
Rp494
(dp495
g10
VUP
p496
sg265
Nsg46
Vasia-east2-c
p497
sg8
(dp498
g268
Vhttps://www.googleapis.com/compute/v1/projects/libcloud-221521/regions/asia-east2
p499
sg71
V1969-12-31T16:00:00.000-08:00
p500
sg14
Vasia-east2-c
p501
sg51
Vhttps://www.googleapis.com/compute/v1/projects/libcloud-221521/zones/asia-east2-c
p502
ssg75
Nsg54
g57
sg273
Vasia
p503
sg275
S'2370'
p504
sbag2
(g260
g4
Ntp505
Rp506
(dp507
g10
VUP
p508
sg265
Nsg46
Vasia-east2-b
p509
sg8
(dp510
g268
Vhttps://www.googleapis.com/compute/v1/projects/libcloud-221521/regions/asia-east2
p511
sg71
V1969-12-31T16:00:00.000-08:00
p512
sg14
Vasia-east2-b
p513
sg51
Vhttps://www.googleapis.com/compute/v1/projects/libcloud-221521/zones/asia-east2-b
p514
ssg75
Nsg54
g57
sg273
Vasia
p515
sg275
S'2371'
p516
sbag2
(g260
g4
Ntp517
Rp518
(dp519
g10
VUP
p520
sg265
Nsg46
Vasia-east2-a
p521
sg8
(dp522
g268
Vhttps://www.googleapis.com/compute/v1/projects/libcloud-221521/regions/asia-east2
p523
sg71
V1969-12-31T16:00:00.000-08:00
p524
sg14
Vasia-east2-a
p525
sg51
Vhttps://www.googleapis.com/compute/v1/projects/libcloud-221521/zones/asia-east2-a
p526
ssg75
Nsg54
g57
sg273
Vasia
p527
sg275
S'2372'
p528
sbasg275
S'1370'
p529
sbag2
(g64
g4
Ntp530
Rp531
(dp532
g10
VUP
p533
sg46
Vasia-northeast1
p534
sg8
(dp535
g71
V1969-12-31T16:00:00.000-08:00
p536
sg14
Vasia-northeast1
p537
sg51
Vhttps://www.googleapis.com/compute/v1/projects/libcloud-221521/regions/asia-northeast1
p538
ssg75
Nsg53
Nsg54
g57
sg76
(lp539
(dp540
Vusage
p541
F0.0
sVmetric
p542
VCPUS
p543
sVlimit
p544
F72.0
sa(dp545
Vusage
p546
F0.0
sVmetric
p547
VDISKS_TOTAL_GB
p548
sVlimit
p549
F40960.0
sa(dp550
Vusage
p551
F0.0
sVmetric
p552
VSTATIC_ADDRESSES
p553
sVlimit
p554
F21.0
sa(dp555
Vusage
p556
F0.0
sVmetric
p557
VIN_USE_ADDRESSES
p558
sVlimit
p559
F69.0
sa(dp560
Vusage
p561
F0.0
sVmetric
p562
VSSD_TOTAL_GB
p563
sVlimit
p564
F20480.0
sa(dp565
Vusage
p566
F0.0
sVmetric
p567
VLOCAL_SSD_TOTAL_GB
p568
sVlimit
p569
F20000.0
sa(dp570
Vusage
p571
F0.0
sVmetric
p572
VINSTANCE_GROUPS
p573
sVlimit
p574
F300.0
sa(dp575
Vusage
p576
F0.0
sVmetric
p577
VINSTANCE_GROUP_MANAGERS
p578
sVlimit
p579
F150.0
sa(dp580
Vusage
p581
F0.0
sVmetric
p582
VINSTANCES
p583
sVlimit
p584
F720.0
sa(dp585
Vusage
p586
F0.0
sVmetric
p587
VAUTOSCALERS
p588
sVlimit
p589
F150.0
sa(dp590
Vusage
p591
F0.0
sVmetric
p592
VREGIONAL_AUTOSCALERS
p593
sVlimit
p594
F100.0
sa(dp595
Vusage
p596
F0.0
sVmetric
p597
VREGIONAL_INSTANCE_GROUP_MANAGERS
p598
sVlimit
p599
F100.0
sa(dp600
Vusage
p601
F0.0
sVmetric
p602
VPREEMPTIBLE_CPUS
p603
sVlimit
p604
F0.0
sa(dp605
Vusage
p606
F0.0
sVmetric
p607
VNVIDIA_K80_GPUS
p608
sVlimit
p609
F8.0
sa(dp610
Vusage
p611
F0.0
sVmetric
p612
VCOMMITMENTS
p613
sVlimit
p614
F0.0
sa(dp615
Vusage
p616
F0.0
sVmetric
p617
VINTERNAL_ADDRESSES
p618
sVlimit
p619
F200.0
sa(dp620
Vusage
p621
F0.0
sVmetric
p622
VNVIDIA_P100_GPUS
p623
sVlimit
p624
F1.0
sa(dp625
Vusage
p626
F0.0
sVmetric
p627
VPREEMPTIBLE_LOCAL_SSD_GB
p628
sVlimit
p629
F0.0
sa(dp630
Vusage
p631
F0.0
sVmetric
p632
VPREEMPTIBLE_NVIDIA_K80_GPUS
p633
sVlimit
p634
F1.0
sa(dp635
Vusage
p636
F0.0
sVmetric
p637
VPREEMPTIBLE_NVIDIA_P100_GPUS
p638
sVlimit
p639
F1.0
sa(dp640
Vusage
p641
F0.0
sVmetric
p642
VNVIDIA_P100_VWS_GPUS
p643
sVlimit
p644
F1.0
sa(dp645
Vusage
p646
F0.0
sVmetric
p647
VNVIDIA_V100_GPUS
p648
sVlimit
p649
F1.0
sa(dp650
Vusage
p651
F0.0
sVmetric
p652
VNVIDIA_P4_GPUS
p653
sVlimit
p654
F1.0
sa(dp655
Vusage
p656
F0.0
sVmetric
p657
VNVIDIA_P4_VWS_GPUS
p658
sVlimit
p659
F1.0
sa(dp660
Vusage
p661
F0.0
sVmetric
p662
VPREEMPTIBLE_NVIDIA_V100_GPUS
p663
sVlimit
p664
F1.0
sa(dp665
Vusage
p666
F0.0
sVmetric
p667
VPREEMPTIBLE_NVIDIA_P4_GPUS
p668
sVlimit
p669
F1.0
sa(dp670
Vusage
p671
F0.0
sVmetric
p672
VPREEMPTIBLE_NVIDIA_P100_VWS_GPUS
p673
sVlimit
p674
F1.0
sa(dp675
Vusage
p676
F0.0
sVmetric
p677
VPREEMPTIBLE_NVIDIA_P4_VWS_GPUS
p678
sVlimit
p679
F1.0
sa(dp680
Vusage
p681
F0.0
sVmetric
p682
VINTERCONNECT_ATTACHMENTS_PER_REGION
p683
sVlimit
p684
F16.0
sa(dp685
Vusage
p686
F0.0
sVmetric
p687
VINTERCONNECT_ATTACHMENTS_TOTAL_MBPS
p688
sVlimit
p689
F80000.0
sa(dp690
Vusage
p691
F0.0
sVmetric
p692
VRESOURCE_POLICIES
p693
sVlimit
p694
F10.0
sa(dp695
Vusage
p696
F0.0
sVmetric
p697
VIN_USE_BACKUP_SCHEDULES
p698
sVlimit
p699
F50.0
sa(dp700
Vusage
p701
F0.0
sVmetric
p702
VNVIDIA_T4_GPUS
p703
sVlimit
p704
F1.0
sa(dp705
Vusage
p706
F0.0
sVmetric
p707
VNVIDIA_T4_VWS_GPUS
p708
sVlimit
p709
F1.0
sa(dp710
Vusage
p711
F0.0
sVmetric
p712
VPREEMPTIBLE_NVIDIA_T4_GPUS
p713
sVlimit
p714
F1.0
sa(dp715
Vusage
p716
F0.0
sVmetric
p717
VPREEMPTIBLE_NVIDIA_T4_VWS_GPUS
p718
sVlimit
p719
F1.0
sasg258
(lp720
g2
(g260
g4
Ntp721
Rp722
(dp723
g10
VUP
p724
sg265
Nsg46
Vasia-northeast1-a
p725
sg8
(dp726
g268
Vhttps://www.googleapis.com/compute/v1/projects/libcloud-221521/regions/asia-northeast1
p727
sg71
V1969-12-31T16:00:00.000-08:00
p728
sg14
Vasia-northeast1-a
p729
sg51
Vhttps://www.googleapis.com/compute/v1/projects/libcloud-221521/zones/asia-northeast1-a
p730
ssg75
Nsg54
g57
sg273
Vasia
p731
sg275
S'2250'
p732
sbag2
(g260
g4
Ntp733
Rp734
(dp735
g10
VUP
p736
sg265
Nsg46
Vasia-northeast1-b
p737
sg8
(dp738
g268
Vhttps://www.googleapis.com/compute/v1/projects/libcloud-221521/regions/asia-northeast1
p739
sg71
V1969-12-31T16:00:00.000-08:00
p740
sg14
Vasia-northeast1-b
p741
sg51
Vhttps://www.googleapis.com/compute/v1/projects/libcloud-221521/zones/asia-northeast1-b
p742
ssg75
Nsg54
g57
sg273
Vasia
p743
sg275
S'2251'
p744
sbag2
(g260
g4
Ntp745
Rp746
(dp747
g10
VUP
p748
sg265
Nsg46
Vasia-northeast1-c
p749
sg8
(dp750
g268
Vhttps://www.googleapis.com/compute/v1/projects/libcloud-221521/regions/asia-northeast1
p751
sg71
V1969-12-31T16:00:00.000-08:00
p752
sg14
Vasia-northeast1-c
p753
sg51
Vhttps://www.googleapis.com/compute/v1/projects/libcloud-221521/zones/asia-northeast1-c
p754
ssg75
Nsg54
g57
sg273
Vasia
p755
sg275
S'2252'
p756
sbasg275
S'1250'
p757
sbag2
(g64
g4
Ntp758
Rp759
(dp760
g10
VUP
p761
sg46
Vasia-south1
p762
sg8
(dp763
g71
V1969-12-31T16:00:00.000-08:00
p764
sg14
Vasia-south1
p765
sg51
Vhttps://www.googleapis.com/compute/v1/projects/libcloud-221521/regions/asia-south1
p766
ssg75
Nsg53
Nsg54
g57
sg76
(lp767
(dp768
Vusage
p769
F0.0
sVmetric
p770
VCPUS
p771
sVlimit
p772
F8.0
sa(dp773
Vusage
p774
F0.0
sVmetric
p775
VDISKS_TOTAL_GB
p776
sVlimit
p777
F2048.0
sa(dp778
Vusage
p779
F0.0
sVmetric
p780
VSTATIC_ADDRESSES
p781
sVlimit
p782
F1.0
sa(dp783
Vusage
p784
F0.0
sVmetric
p785
VIN_USE_ADDRESSES
p786
sVlimit
p787
F8.0
sa(dp788
Vusage
p789
F0.0
sVmetric
p790
VSSD_TOTAL_GB
p791
sVlimit
p792
F100.0
sa(dp793
Vusage
p794
F0.0
sVmetric
p795
VLOCAL_SSD_TOTAL_GB
p796
sVlimit
p797
F1500.0
sa(dp798
Vusage
p799
F0.0
sVmetric
p800
VINSTANCE_GROUPS
p801
sVlimit
p802
F100.0
sa(dp803
Vusage
p804
F0.0
sVmetric
p805
VINSTANCE_GROUP_MANAGERS
p806
sVlimit
p807
F50.0
sa(dp808
Vusage
p809
F0.0
sVmetric
p810
VINSTANCES
p811
sVlimit
p812
F80.0
sa(dp813
Vusage
p814
F0.0
sVmetric
p815
VAUTOSCALERS
p816
sVlimit
p817
F50.0
sa(dp818
Vusage
p819
F0.0
sVmetric
p820
VREGIONAL_AUTOSCALERS
p821
sVlimit
p822
F20.0
sa(dp823
Vusage
p824
F0.0
sVmetric
p825
VREGIONAL_INSTANCE_GROUP_MANAGERS
p826
sVlimit
p827
F20.0
sa(dp828
Vusage
p829
F0.0
sVmetric
p830
VPREEMPTIBLE_CPUS
p831
sVlimit
p832
F0.0
sa(dp833
Vusage
p834
F0.0
sVmetric
p835
VNVIDIA_K80_GPUS
p836
sVlimit
p837
F1.0
sa(dp838
Vusage
p839
F0.0
sVmetric
p840
VCOMMITMENTS
p841
sVlimit
p842
F0.0
sa(dp843
Vusage
p844
F0.0
sVmetric
p845
VINTERNAL_ADDRESSES
p846
sVlimit
p847
F200.0
sa(dp848
Vusage
p849
F0.0
sVmetric
p850
VNVIDIA_P100_GPUS
p851
sVlimit
p852
F1.0
sa(dp853
Vusage
p854
F0.0
sVmetric
p855
VPREEMPTIBLE_LOCAL_SSD_GB
p856
sVlimit
p857
F0.0
sa(dp858
Vusage
p859
F0.0
sVmetric
p860
VPREEMPTIBLE_NVIDIA_K80_GPUS
p861
sVlimit
p862
F1.0
sa(dp863
Vusage
p864
F0.0
sVmetric
p865
VPREEMPTIBLE_NVIDIA_P100_GPUS
p866
sVlimit
p867
F1.0
sa(dp868
Vusage
p869
F0.0
sVmetric
p870
VNVIDIA_P100_VWS_GPUS
p871
sVlimit
p872
F1.0
sa(dp873
Vusage
p874
F0.0
sVmetric
p875
VNVIDIA_V100_GPUS
p876
sVlimit
p877
F1.0
sa(dp878
Vusage
p879
F0.0
sVmetric
p880
VNVIDIA_P4_GPUS
p881
sVlimit
p882
F1.0
sa(dp883
Vusage
p884
F0.0
sVmetric
p885
VNVIDIA_P4_VWS_GPUS
p886
sVlimit
p887
F1.0
sa(dp888
Vusage
p889
F0.0
sVmetric
p890
VPREEMPTIBLE_NVIDIA_V100_GPUS
p891
sVlimit
p892
F1.0
sa(dp893
Vusage
p894
F0.0
sVmetric
p895
VPREEMPTIBLE_NVIDIA_P4_GPUS
p896
sVlimit
p897
F1.0
sa(dp898
Vusage
p899
F0.0
sVmetric
p900
VPREEMPTIBLE_NVIDIA_P100_VWS_GPUS
p901
sVlimit
p902
F1.0
sa(dp903
Vusage
p904
F0.0
sVmetric
p905
VPREEMPTIBLE_NVIDIA_P4_VWS_GPUS
p906
sVlimit
p907
F1.0
sa(dp908
Vusage
p909
F0.0
sVmetric
p910
VINTERCONNECT_ATTACHMENTS_PER_REGION
p911
sVlimit
p912
F16.0
sa(dp913
Vusage
p914
F0.0
sVmetric
p915
VINTERCONNECT_ATTACHMENTS_TOTAL_MBPS
p916
sVlimit
p917
F80000.0
sa(dp918
Vusage
p919
F0.0
sVmetric
p920
VRESOURCE_POLICIES
p921
sVlimit
p922
F5.0
sa(dp923
Vusage
p924
F0.0
sVmetric
p925
VIN_USE_BACKUP_SCHEDULES
p926
sVlimit
p927
F20.0
sa(dp928
Vusage
p929
F0.0
sVmetric
p930
VNVIDIA_T4_GPUS
p931
sVlimit
p932
F1.0
sa(dp933
Vusage
p934
F0.0
sVmetric
p935
VNVIDIA_T4_VWS_GPUS
p936
sVlimit
p937
F1.0
sa(dp938
Vusage
p939
F0.0
sVmetric
p940
VPREEMPTIBLE_NVIDIA_T4_GPUS
p941
sVlimit
p942
F1.0
sa(dp943
Vusage
p944
F0.0
sVmetric
p945
VPREEMPTIBLE_NVIDIA_T4_VWS_GPUS
p946
sVlimit
p947
F1.0
sasg258
(lp948
g2
(g260
g4
Ntp949
Rp950
(dp951
g10
VUP
p952
sg265
Nsg46
Vasia-south1-b
p953
sg8
(dp954
g268
Vhttps://www.googleapis.com/compute/v1/projects/libcloud-221521/regions/asia-south1
p955
sg71
V1969-12-31T16:00:00.000-08:00
p956
sg14
Vasia-south1-b
p957
sg51
Vhttps://www.googleapis.com/compute/v1/projects/libcloud-221521/zones/asia-south1-b
p958
ssg75
Nsg54
g57
sg273
Vasia
p959
sg275
S'2320'
p960
sbag2
(g260
g4
Ntp961
Rp962
(dp963
g10
VUP
p964
sg265
Nsg46
Vasia-south1-a
p965
sg8
(dp966
g268
Vhttps://www.googleapis.com/compute/v1/projects/libcloud-221521/regions/asia-south1
p967
sg71
V1969-12-31T16:00:00.000-08:00
p968
sg14
Vasia-south1-a
p969
sg51
Vhttps://www.googleapis.com/compute/v1/projects/libcloud-221521/zones/asia-south1-a
p970
ssg75
Nsg54
g57
sg273
Vasia
p971
sg275
S'2321'
p972
sbag2
(g260
g4
Ntp973
Rp974
(dp975
g10
VUP
p976
sg265
Nsg46
Vasia-south1-c
p977
sg8
(dp978
g268
Vhttps://www.googleapis.com/compute/v1/projects/libcloud-221521/regions/asia-south1
p979
sg71
V1969-12-31T16:00:00.000-08:00
p980
sg14
Vasia-south1-c
p981
sg51
Vhttps://www.googleapis.com/compute/v1/projects/libcloud-221521/zones/asia-south1-c
p982
ssg75
Nsg54
g57
sg273
Vasia
p983
sg275
S'2322'
p984
sbasg275
S'1320'
p985
sbag2
(g64
g4
Ntp986
Rp987
(dp988
g10
VUP
p989
sg46
Vasia-southeast1
p990
sg8
(dp991
g71
V1969-12-31T16:00:00.000-08:00
p992
sg14
Vasia-southeast1
p993
sg51
Vhttps://www.googleapis.com/compute/v1/projects/libcloud-221521/regions/asia-southeast1
p994
ssg75
Nsg53
Nsg54
g57
sg76
(lp995
(dp996
Vusage
p997
F0.0
sVmetric
p998
VCPUS
p999
sVlimit
p1000
F72.0
sa(dp1001
Vusage
p1002
F0.0
sVmetric
p1003
VDISKS_TOTAL_GB
p1004
sVlimit
p1005
F40960.0
sa(dp1006
Vusage
p1007
F0.0
sVmetric
p1008
VSTATIC_ADDRESSES
p1009
sVlimit
p1010
F21.0
sa(dp1011
Vusage
p1012
F0.0
sVmetric
p1013
VIN_USE_ADDRESSES
p1014
sVlimit
p1015
F69.0
sa(dp1016
Vusage
p1017
F0.0
sVmetric
p1018
VSSD_TOTAL_GB
p1019
sVlimit
p1020
F20480.0
sa(dp1021
Vusage
p1022
F0.0
sVmetric
p1023
VLOCAL_SSD_TOTAL_GB
p1024
sVlimit
p1025
F20000.0
sa(dp1026
Vusage
p1027
F0.0
sVmetric
p1028
VINSTANCE_GROUPS
p1029
sVlimit
p1030
F300.0
sa(dp1031
Vusage
p1032
F0.0
sVmetric
p1033
VINSTANCE_GROUP_MANAGERS
p1034
sVlimit
p1035
F150.0
sa(dp1036
Vusage
p1037
F0.0
sVmetric
p1038
VINSTANCES
p1039
sVlimit
p1040
F720.0
sa(dp1041
Vusage
p1042
F0.0
sVmetric
p1043
VAUTOSCALERS
p1044
sVlimit
p1045
F150.0
sa(dp1046
Vusage
p1047
F0.0
sVmetric
p1048
VREGIONAL_AUTOSCALERS
p1049
sVlimit
p1050
F100.0
sa(dp1051
Vusage
p1052
F0.0
sVmetric
p1053
VREGIONAL_INSTANCE_GROUP_MANAGERS
p1054
sVlimit
p1055
F100.0
sa(dp1056
Vusage
p1057
F0.0
sVmetric
p1058
VPREEMPTIBLE_CPUS
p1059
sVlimit
p1060
F0.0
sa(dp1061
Vusage
p1062
F0.0
sVmetric
p1063
VNVIDIA_K80_GPUS
p1064
sVlimit
p1065
F8.0
sa(dp1066
Vusage
p1067
F0.0
sVmetric
p1068
VCOMMITMENTS
p1069
sVlimit
p1070
F0.0
sa(dp1071
Vusage
p1072
F0.0
sVmetric
p1073
VINTERNAL_ADDRESSES
p1074
sVlimit
p1075
F200.0
sa(dp1076
Vusage
p1077
F0.0
sVmetric
p1078
VNVIDIA_P100_GPUS
p1079
sVlimit
p1080
F1.0
sa(dp1081
Vusage
p1082
F0.0
sVmetric
p1083
VPREEMPTIBLE_LOCAL_SSD_GB
p1084
sVlimit
p1085
F0.0
sa(dp1086
Vusage
p1087
F0.0
sVmetric
p1088
VPREEMPTIBLE_NVIDIA_K80_GPUS
p1089
sVlimit
p1090
F1.0
sa(dp1091
Vusage
p1092
F0.0
sVmetric
p1093
VPREEMPTIBLE_NVIDIA_P100_GPUS
p1094
sVlimit
p1095
F1.0
sa(dp1096
Vusage
p1097
F0.0
sVmetric
p1098
VNVIDIA_P100_VWS_GPUS
p1099
sVlimit
p1100
F1.0
sa(dp1101
Vusage
p1102
F0.0
sVmetric
p1103
VNVIDIA_V100_GPUS
p1104
sVlimit
p1105
F1.0
sa(dp1106
Vusage
p1107
F0.0
sVmetric
p1108
VNVIDIA_P4_GPUS
p1109
sVlimit
p1110
F1.0
sa(dp1111
Vusage
p1112
F0.0
sVmetric
p1113
VNVIDIA_P4_VWS_GPUS
p1114
sVlimit
p1115
F1.0
sa(dp1116
Vusage
p1117
F0.0
sVmetric
p1118
VPREEMPTIBLE_NVIDIA_V100_GPUS
p1119
sVlimit
p1120
F1.0
sa(dp1121
Vusage
p1122
F0.0
sVmetric
p1123
VPREEMPTIBLE_NVIDIA_P4_GPUS
p1124
sVlimit
p1125
F1.0
sa(dp1126
Vusage
p1127
F0.0
sVmetric
p1128
VPREEMPTIBLE_NVIDIA_P100_VWS_GPUS
p1129
sVlimit
p1130
F1.0
sa(dp1131
Vusage
p1132
F0.0
sVmetric
p1133
VPREEMPTIBLE_NVIDIA_P4_VWS_GPUS
p1134
sVlimit
p1135
F1.0
sa(dp1136
Vusage
p1137
F0.0
sVmetric
p1138
VINTERCONNECT_ATTACHMENTS_PER_REGION
p1139
sVlimit
p1140
F16.0
sa(dp1141
Vusage
p1142
F0.0
sVmetric
p1143
VINTERCONNECT_ATTACHMENTS_TOTAL_MBPS
p1144
sVlimit
p1145
F80000.0
sa(dp1146
Vusage
p1147
F0.0
sVmetric
p1148
VRESOURCE_POLICIES
p1149
sVlimit
p1150
F10.0
sa(dp1151
Vusage
p1152
F0.0
sVmetric
p1153
VIN_USE_BACKUP_SCHEDULES
p1154
sVlimit
p1155
F50.0
sa(dp1156
Vusage
p1157
F0.0
sVmetric
p1158
VNVIDIA_T4_GPUS
p1159
sVlimit
p1160
F1.0
sa(dp1161
Vusage
p1162
F0.0
sVmetric
p1163
VNVIDIA_T4_VWS_GPUS
p1164
sVlimit
p1165
F1.0
sa(dp1166
Vusage
p1167
F0.0
sVmetric
p1168
VPREEMPTIBLE_NVIDIA_T4_GPUS
p1169
sVlimit
p1170
F1.0
sa(dp1171
Vusage
p1172
F0.0
sVmetric
p1173
VPREEMPTIBLE_NVIDIA_T4_VWS_GPUS
p1174
sVlimit
p1175
F1.0
sasg258
(lp1176
g2
(g260
g4
Ntp1177
Rp1178
(dp1179
g10
VUP
p1180
sg265
Nsg46
Vasia-southeast1-a
p1181
sg8
(dp1182
g268
Vhttps://www.googleapis.com/compute/v1/projects/libcloud-221521/regions/asia-southeast1
p1183
sg71
V1969-12-31T16:00:00.000-08:00
p1184
sg14
Vasia-southeast1-a
p1185
sg51
Vhttps://www.googleapis.com/compute/v1/projects/libcloud-221521/zones/asia-southeast1-a
p1186
ssg75
Nsg54
g57
sg273
Vasia
p1187
sg275
S'2260'
p1188
sbag2
(g260
g4
Ntp1189
Rp1190
(dp1191
g10
VUP
p1192
sg265
Nsg46
Vasia-southeast1-b
p1193
sg8
(dp1194
g268
Vhttps://www.googleapis.com/compute/v1/projects/libcloud-221521/regions/asia-southeast1
p1195
sg71
V1969-12-31T16:00:00.000-08:00
p1196
sg14
Vasia-southeast1-b
p1197
sg51
Vhttps://www.googleapis.com/compute/v1/projects/libcloud-221521/zones/asia-southeast1-b
p1198
ssg75
Nsg54
g57
sg273
Vasia
p1199
sg275
S'2261'
p1200
sbag2
(g260
g4
Ntp1201
Rp1202
(dp1203
g10
VUP
p1204
sg265
Nsg46
Vasia-southeast1-c
p1205
sg8
(dp1206
g268
Vhttps://www.googleapis.com/compute/v1/projects/libcloud-221521/regions/asia-southeast1
p1207
sg71
V1969-12-31T16:00:00.000-08:00
p1208
sg14
Vasia-southeast1-c
p1209
sg51
Vhttps://www.googleapis.com/compute/v1/projects/libcloud-221521/zones/asia-southeast1-c
p1210
ssg75
Nsg54
g57
sg273
Vasia
p1211
sg275
S'2262'
p1212
sbasg275
S'1260'
p1213
sbag2
(g64
g4
Ntp1214
Rp1215
(dp1216
g10
VUP
p1217
sg46
Vaustralia-southeast1
p1218
sg8
(dp1219
g71
V1969-12-31T16:00:00.000-08:00
p1220
sg14
Vaustralia-southeast1
p1221
sg51
Vhttps://www.googleapis.com/compute/v1/projects/libcloud-221521/regions/australia-southeast1
p1222
ssg75
Nsg53
Nsg54
g57
sg76
(lp1223
(dp1224
Vusage
p1225
F0.0
sVmetric
p1226
VCPUS
p1227
sVlimit
p1228
F8.0
sa(dp1229
Vusage
p1230
F0.0
sVmetric
p1231
VDISKS_TOTAL_GB
p1232
sVlimit
p1233
F2048.0
sa(dp1234
Vusage
p1235
F0.0
sVmetric
p1236
VSTATIC_ADDRESSES
p1237
sVlimit
p1238
F1.0
sa(dp1239
Vusage
p1240
F0.0
sVmetric
p1241
VIN_USE_ADDRESSES
p1242
sVlimit
p1243
F8.0
sa(dp1244
Vusage
p1245
F0.0
sVmetric
p1246
VSSD_TOTAL_GB
p1247
sVlimit
p1248
F100.0
sa(dp1249
Vusage
p1250
F0.0
sVmetric
p1251
VLOCAL_SSD_TOTAL_GB
p1252
sVlimit
p1253
F1500.0
sa(dp1254
Vusage
p1255
F0.0
sVmetric
p1256
VINSTANCE_GROUPS
p1257
sVlimit
p1258
F100.0
sa(dp1259
Vusage
p1260
F0.0
sVmetric
p1261
VINSTANCE_GROUP_MANAGERS
p1262
sVlimit
p1263
F50.0
sa(dp1264
Vusage
p1265
F0.0
sVmetric
p1266
VINSTANCES
p1267
sVlimit
p1268
F80.0
sa(dp1269
Vusage
p1270
F0.0
sVmetric
p1271
VAUTOSCALERS
p1272
sVlimit
p1273
F50.0
sa(dp1274
Vusage
p1275
F0.0
sVmetric
p1276
VREGIONAL_AUTOSCALERS
p1277
sVlimit
p1278
F20.0
sa(dp1279
Vusage
p1280
F0.0
sVmetric
p1281
VREGIONAL_INSTANCE_GROUP_MANAGERS
p1282
sVlimit
p1283
F20.0
sa(dp1284
Vusage
p1285
F0.0
sVmetric
p1286
VPREEMPTIBLE_CPUS
p1287
sVlimit
p1288
F0.0
sa(dp1289
Vusage
p1290
F0.0
sVmetric
p1291
VNVIDIA_K80_GPUS
p1292
sVlimit
p1293
F1.0
sa(dp1294
Vusage
p1295
F0.0
sVmetric
p1296
VCOMMITMENTS
p1297
sVlimit
p1298
F0.0
sa(dp1299
Vusage
p1300
F0.0
sVmetric
p1301
VINTERNAL_ADDRESSES
p1302
sVlimit
p1303
F200.0
sa(dp1304
Vusage
p1305
F0.0
sVmetric
p1306
VNVIDIA_P100_GPUS
p1307
sVlimit
p1308
F1.0
sa(dp1309
Vusage
p1310
F0.0
sVmetric
p1311
VPREEMPTIBLE_LOCAL_SSD_GB
p1312
sVlimit
p1313
F0.0
sa(dp1314
Vusage
p1315
F0.0
sVmetric
p1316
VPREEMPTIBLE_NVIDIA_K80_GPUS
p1317
sVlimit
p1318
F1.0
sa(dp1319
Vusage
p1320
F0.0
sVmetric
p1321
VPREEMPTIBLE_NVIDIA_P100_GPUS
p1322
sVlimit
p1323
F1.0
sa(dp1324
Vusage
p1325
F0.0
sVmetric
p1326
VNVIDIA_P100_VWS_GPUS
p1327
sVlimit
p1328
F1.0
sa(dp1329
Vusage
p1330
F0.0
sVmetric
p1331
VNVIDIA_V100_GPUS
p1332
sVlimit
p1333
F1.0
sa(dp1334
Vusage
p1335
F0.0
sVmetric
p1336
VNVIDIA_P4_GPUS
p1337
sVlimit
p1338
F1.0
sa(dp1339
Vusage
p1340
F0.0
sVmetric
p1341
VNVIDIA_P4_VWS_GPUS
p1342
sVlimit
p1343
F1.0
sa(dp1344
Vusage
p1345
F0.0
sVmetric
p1346
VPREEMPTIBLE_NVIDIA_V100_GPUS
p1347
sVlimit
p1348
F1.0
sa(dp1349
Vusage
p1350
F0.0
sVmetric
p1351
VPREEMPTIBLE_NVIDIA_P4_GPUS
p1352
sVlimit
p1353
F1.0
sa(dp1354
Vusage
p1355
F0.0
sVmetric
p1356
VPREEMPTIBLE_NVIDIA_P100_VWS_GPUS
p1357
sVlimit
p1358
F1.0
sa(dp1359
Vusage
p1360
F0.0
sVmetric
p1361
VPREEMPTIBLE_NVIDIA_P4_VWS_GPUS
p1362
sVlimit
p1363
F1.0
sa(dp1364
Vusage
p1365
F0.0
sVmetric
p1366
VINTERCONNECT_ATTACHMENTS_PER_REGION
p1367
sVlimit
p1368
F16.0
sa(dp1369
Vusage
p1370
F0.0
sVmetric
p1371
VINTERCONNECT_ATTACHMENTS_TOTAL_MBPS
p1372
sVlimit
p1373
F80000.0
sa(dp1374
Vusage
p1375
F0.0
sVmetric
p1376
VRESOURCE_POLICIES
p1377
sVlimit
p1378
F5.0
sa(dp1379
Vusage
p1380
F0.0
sVmetric
p1381
VIN_USE_BACKUP_SCHEDULES
p1382
sVlimit
p1383
F20.0
sa(dp1384
Vusage
p1385
F0.0
sVmetric
p1386
VNVIDIA_T4_GPUS
p1387
sVlimit
p1388
F1.0
sa(dp1389
Vusage
p1390
F0.0
sVmetric
p1391
VNVIDIA_T4_VWS_GPUS
p1392
sVlimit
p1393
F1.0
sa(dp1394
Vusage
p1395
F0.0
sVmetric
p1396
VPREEMPTIBLE_NVIDIA_T4_GPUS
p1397
sVlimit
p1398
F1.0
sa(dp1399
Vusage
p1400
F0.0
sVmetric
p1401
VPREEMPTIBLE_NVIDIA_T4_VWS_GPUS
p1402
sVlimit
p1403
F1.0
sasg258
(lp1404
g2
(g260
g4
Ntp1405
Rp1406
(dp1407
g10
VUP
p1408
sg265
Nsg46
Vaustralia-southeast1-c
p1409
sg8
(dp1410
g268
Vhttps://www.googleapis.com/compute/v1/projects/libcloud-221521/regions/australia-southeast1
p1411
sg71
V1969-12-31T16:00:00.000-08:00
p1412
sg14
Vaustralia-southeast1-c
p1413
sg51
Vhttps://www.googleapis.com/compute/v1/projects/libcloud-221521/zones/australia-southeast1-c
p1414
ssg75
Nsg54
g57
sg273
Vaustralia
p1415
sg275
S'2280'
p1416
sbag2
(g260
g4
Ntp1417
Rp1418
(dp1419
g10
VUP
p1420
sg265
Nsg46
Vaustralia-southeast1-a
p1421
sg8
(dp1422
g268
Vhttps://www.googleapis.com/compute/v1/projects/libcloud-221521/regions/australia-southeast1
p1423
sg71
V1969-12-31T16:00:00.000-08:00
p1424
sg14
Vaustralia-southeast1-a
p1425
sg51
Vhttps://www.googleapis.com/compute/v1/projects/libcloud-221521/zones/australia-southeast1-a
p1426
ssg75
Nsg54
g57
sg273
Vaustralia
p1427
sg275
S'2281'
p1428
sbag2
(g260
g4
Ntp1429
Rp1430
(dp1431
g10
VUP
p1432
sg265
Nsg46
Vaustralia-southeast1-b
p1433
sg8
(dp1434
g268
Vhttps://www.googleapis.com/compute/v1/projects/libcloud-221521/regions/australia-southeast1
p1435
sg71
V1969-12-31T16:00:00.000-08:00
p1436
sg14
Vaustralia-southeast1-b
p1437
sg51
Vhttps://www.googleapis.com/compute/v1/projects/libcloud-221521/zones/australia-southeast1-b
p1438
ssg75
Nsg54
g57
sg273
Vaustralia
p1439
sg275
S'2282'
p1440
sbasg275
S'1280'
p1441
sbag2
(g64
g4
Ntp1442
Rp1443
(dp1444
g10
VUP
p1445
sg46
Veurope-north1
p1446
sg8
(dp1447
g71
V1969-12-31T16:00:00.000-08:00
p1448
sg14
Veurope-north1
p1449
sg51
Vhttps://www.googleapis.com/compute/v1/projects/libcloud-221521/regions/europe-north1
p1450
ssg75
Nsg53
Nsg54
g57
sg76
(lp1451
(dp1452
Vusage
p1453
F0.0
sVmetric
p1454
VCPUS
p1455
sVlimit
p1456
F8.0
sa(dp1457
Vusage
p1458
F0.0
sVmetric
p1459
VDISKS_TOTAL_GB
p1460
sVlimit
p1461
F2048.0
sa(dp1462
Vusage
p1463
F0.0
sVmetric
p1464
VSTATIC_ADDRESSES
p1465
sVlimit
p1466
F1.0
sa(dp1467
Vusage
p1468
F0.0
sVmetric
p1469
VIN_USE_ADDRESSES
p1470
sVlimit
p1471
F8.0
sa(dp1472
Vusage
p1473
F0.0
sVmetric
p1474
VSSD_TOTAL_GB
p1475
sVlimit
p1476
F100.0
sa(dp1477
Vusage
p1478
F0.0
sVmetric
p1479
VLOCAL_SSD_TOTAL_GB
p1480
sVlimit
p1481
F1500.0
sa(dp1482
Vusage
p1483
F0.0
sVmetric
p1484
VINSTANCE_GROUPS
p1485
sVlimit
p1486
F100.0
sa(dp1487
Vusage
p1488
F0.0
sVmetric
p1489
VINSTANCE_GROUP_MANAGERS
p1490
sVlimit
p1491
F50.0
sa(dp1492
Vusage
p1493
F0.0
sVmetric
p1494
VINSTANCES
p1495
sVlimit
p1496
F80.0
sa(dp1497
Vusage
p1498
F0.0
sVmetric
p1499
VAUTOSCALERS
p1500
sVlimit
p1501
F50.0
sa(dp1502
Vusage
p1503
F0.0
sVmetric
p1504
VREGIONAL_AUTOSCALERS
p1505
sVlimit
p1506
F20.0
sa(dp1507
Vusage
p1508
F0.0
sVmetric
p1509
VREGIONAL_INSTANCE_GROUP_MANAGERS
p1510
sVlimit
p1511
F20.0
sa(dp1512
Vusage
p1513
F0.0
sVmetric
p1514
VPREEMPTIBLE_CPUS
p1515
sVlimit
p1516
F0.0
sa(dp1517
Vusage
p1518
F0.0
sVmetric
p1519
VNVIDIA_K80_GPUS
p1520
sVlimit
p1521
F1.0
sa(dp1522
Vusage
p1523
F0.0
sVmetric
p1524
VCOMMITMENTS
p1525
sVlimit
p1526
F0.0
sa(dp1527
Vusage
p1528
F0.0
sVmetric
p1529
VINTERNAL_ADDRESSES
p1530
sVlimit
p1531
F200.0
sa(dp1532
Vusage
p1533
F0.0
sVmetric
p1534
VNVIDIA_P100_GPUS
p1535
sVlimit
p1536
F1.0
sa(dp1537
Vusage
p1538
F0.0
sVmetric
p1539
VPREEMPTIBLE_LOCAL_SSD_GB
p1540
sVlimit
p1541
F0.0
sa(dp1542
Vusage
p1543
F0.0
sVmetric
p1544
VPREEMPTIBLE_NVIDIA_K80_GPUS
p1545
sVlimit
p1546
F1.0
sa(dp1547
Vusage
p1548
F0.0
sVmetric
p1549
VPREEMPTIBLE_NVIDIA_P100_GPUS
p1550
sVlimit
p1551
F1.0
sa(dp1552
Vusage
p1553
F0.0
sVmetric
p1554
VNVIDIA_P100_VWS_GPUS
p1555
sVlimit
p1556
F1.0
sa(dp1557
Vusage
p1558
F0.0
sVmetric
p1559
VNVIDIA_V100_GPUS
p1560
sVlimit
p1561
F1.0
sa(dp1562
Vusage
p1563
F0.0
sVmetric
p1564
VNVIDIA_P4_GPUS
p1565
sVlimit
p1566
F1.0
sa(dp1567
Vusage
p1568
F0.0
sVmetric
p1569
VNVIDIA_P4_VWS_GPUS
p1570
sVlimit
p1571
F1.0
sa(dp1572
Vusage
p1573
F0.0
sVmetric
p1574
VPREEMPTIBLE_NVIDIA_V100_GPUS
p1575
sVlimit
p1576
F1.0
sa(dp1577
Vusage
p1578
F0.0
sVmetric
p1579
VPREEMPTIBLE_NVIDIA_P4_GPUS
p1580
sVlimit
p1581
F1.0
sa(dp1582
Vusage
p1583
F0.0
sVmetric
p1584
VPREEMPTIBLE_NVIDIA_P100_VWS_GPUS
p1585
sVlimit
p1586
F1.0
sa(dp1587
Vusage
p1588
F0.0
sVmetric
p1589
VPREEMPTIBLE_NVIDIA_P4_VWS_GPUS
p1590
sVlimit
p1591
F1.0
sa(dp1592
Vusage
p1593
F0.0
sVmetric
p1594
VINTERCONNECT_ATTACHMENTS_PER_REGION
p1595
sVlimit
p1596
F16.0
sa(dp1597
Vusage
p1598
F0.0
sVmetric
p1599
VINTERCONNECT_ATTACHMENTS_TOTAL_MBPS
p1600
sVlimit
p1601
F80000.0
sa(dp1602
Vusage
p1603
F0.0
sVmetric
p1604
VRESOURCE_POLICIES
p1605
sVlimit
p1606
F5.0
sa(dp1607
Vusage
p1608
F0.0
sVmetric
p1609
VIN_USE_BACKUP_SCHEDULES
p1610
sVlimit
p1611
F20.0
sa(dp1612
Vusage
p1613
F0.0
sVmetric
p1614
VNVIDIA_T4_GPUS
p1615
sVlimit
p1616
F1.0
sa(dp1617
Vusage
p1618
F0.0
sVmetric
p1619
VNVIDIA_T4_VWS_GPUS
p1620
sVlimit
p1621
F1.0
sa(dp1622
Vusage
p1623
F0.0
sVmetric
p1624
VPREEMPTIBLE_NVIDIA_T4_GPUS
p1625
sVlimit
p1626
F1.0
sa(dp1627
Vusage
p1628
F0.0
sVmetric
p1629
VPREEMPTIBLE_NVIDIA_T4_VWS_GPUS
p1630
sVlimit
p1631
F1.0
sasg258
(lp1632
g2
(g260
g4
Ntp1633
Rp1634
(dp1635
g10
VUP
p1636
sg265
Nsg46
Veurope-north1-b
p1637
sg8
(dp1638
g268
Vhttps://www.googleapis.com/compute/v1/projects/libcloud-221521/regions/europe-north1
p1639
sg71
V1969-12-31T16:00:00.000-08:00
p1640
sg14
Veurope-north1-b
p1641
sg51
Vhttps://www.googleapis.com/compute/v1/projects/libcloud-221521/zones/europe-north1-b
p1642
ssg75
Nsg54
g57
sg273
Veurope
p1643
sg275
S'2350'
p1644
sbag2
(g260
g4
Ntp1645
Rp1646
(dp1647
g10
VUP
p1648
sg265
Nsg46
Veurope-north1-c
p1649
sg8
(dp1650
g268
Vhttps://www.googleapis.com/compute/v1/projects/libcloud-221521/regions/europe-north1
p1651
sg71
V1969-12-31T16:00:00.000-08:00
p1652
sg14
Veurope-north1-c
p1653
sg51
Vhttps://www.googleapis.com/compute/v1/projects/libcloud-221521/zones/europe-north1-c
p1654
ssg75
Nsg54
g57
sg273
Veurope
p1655
sg275
S'2351'
p1656
sbag2
(g260
g4
Ntp1657
Rp1658
(dp1659
g10
VUP
p1660
sg265
Nsg46
Veurope-north1-a
p1661
sg8
(dp1662
g268
Vhttps://www.googleapis.com/compute/v1/projects/libcloud-221521/regions/europe-north1
p1663
sg71
V1969-12-31T16:00:00.000-08:00
p1664
sg14
Veurope-north1-a
p1665
sg51
Vhttps://www.googleapis.com/compute/v1/projects/libcloud-221521/zones/europe-north1-a
p1666
ssg75
Nsg54
g57
sg273
Veurope
p1667
sg275
S'2352'
p1668
sbasg275
S'1350'
p1669
sbag2
(g64
g4
Ntp1670
Rp1671
(dp1672
g10
VUP
p1673
sg46
Veurope-west1
p1674
sg8
(dp1675
g71
V1969-12-31T16:00:00.000-08:00
p1676
sg14
Veurope-west1
p1677
sg51
Vhttps://www.googleapis.com/compute/v1/projects/libcloud-221521/regions/europe-west1
p1678
ssg75
Nsg53
Nsg54
g57
sg76
(lp1679
(dp1680
Vusage
p1681
F0.0
sVmetric
p1682
VCPUS
p1683
sVlimit
p1684
F72.0
sa(dp1685
Vusage
p1686
F0.0
sVmetric
p1687
VDISKS_TOTAL_GB
p1688
sVlimit
p1689
F40960.0
sa(dp1690
Vusage
p1691
F0.0
sVmetric
p1692
VSTATIC_ADDRESSES
p1693
sVlimit
p1694
F21.0
sa(dp1695
Vusage
p1696
F0.0
sVmetric
p1697
VIN_USE_ADDRESSES
p1698
sVlimit
p1699
F69.0
sa(dp1700
Vusage
p1701
F0.0
sVmetric
p1702
VSSD_TOTAL_GB
p1703
sVlimit
p1704
F20480.0
sa(dp1705
Vusage
p1706
F0.0
sVmetric
p1707
VLOCAL_SSD_TOTAL_GB
p1708
sVlimit
p1709
F20000.0
sa(dp1710
Vusage
p1711
F0.0
sVmetric
p1712
VINSTANCE_GROUPS
p1713
sVlimit
p1714
F300.0
sa(dp1715
Vusage
p1716
F0.0
sVmetric
p1717
VINSTANCE_GROUP_MANAGERS
p1718
sVlimit
p1719
F150.0
sa(dp1720
Vusage
p1721
F0.0
sVmetric
p1722
VINSTANCES
p1723
sVlimit
p1724
F720.0
sa(dp1725
Vusage
p1726
F0.0
sVmetric
p1727
VAUTOSCALERS
p1728
sVlimit
p1729
F150.0
sa(dp1730
Vusage
p1731
F0.0
sVmetric
p1732
VREGIONAL_AUTOSCALERS
p1733
sVlimit
p1734
F100.0
sa(dp1735
Vusage
p1736
F0.0
sVmetric
p1737
VREGIONAL_INSTANCE_GROUP_MANAGERS
p1738
sVlimit
p1739
F100.0
sa(dp1740
Vusage
p1741
F0.0
sVmetric
p1742
VPREEMPTIBLE_CPUS
p1743
sVlimit
p1744
F0.0
sa(dp1745
Vusage
p1746
F0.0
sVmetric
p1747
VNVIDIA_K80_GPUS
p1748
sVlimit
p1749
F8.0
sa(dp1750
Vusage
p1751
F0.0
sVmetric
p1752
VCOMMITMENTS
p1753
sVlimit
p1754
F0.0
sa(dp1755
Vusage
p1756
F0.0
sVmetric
p1757
VINTERNAL_ADDRESSES
p1758
sVlimit
p1759
F200.0
sa(dp1760
Vusage
p1761
F0.0
sVmetric
p1762
VNVIDIA_P100_GPUS
p1763
sVlimit
p1764
F1.0
sa(dp1765
Vusage
p1766
F0.0
sVmetric
p1767
VPREEMPTIBLE_LOCAL_SSD_GB
p1768
sVlimit
p1769
F0.0
sa(dp1770
Vusage
p1771
F0.0
sVmetric
p1772
VPREEMPTIBLE_NVIDIA_K80_GPUS
p1773
sVlimit
p1774
F1.0
sa(dp1775
Vusage
p1776
F0.0
sVmetric
p1777
VPREEMPTIBLE_NVIDIA_P100_GPUS
p1778
sVlimit
p1779
F1.0
sa(dp1780
Vusage
p1781
F0.0
sVmetric
p1782
VNVIDIA_P100_VWS_GPUS
p1783
sVlimit
p1784
F1.0
sa(dp1785
Vusage
p1786
F0.0
sVmetric
p1787
VNVIDIA_V100_GPUS
p1788
sVlimit
p1789
F1.0
sa(dp1790
Vusage
p1791
F0.0
sVmetric
p1792
VNVIDIA_P4_GPUS
p1793
sVlimit
p1794
F1.0
sa(dp1795
Vusage
p1796
F0.0
sVmetric
p1797
VNVIDIA_P4_VWS_GPUS
p1798
sVlimit
p1799
F1.0
sa(dp1800
Vusage
p1801
F0.0
sVmetric
p1802
VPREEMPTIBLE_NVIDIA_V100_GPUS
p1803
sVlimit
p1804
F1.0
sa(dp1805
Vusage
p1806
F0.0
sVmetric
p1807
VPREEMPTIBLE_NVIDIA_P4_GPUS
p1808
sVlimit
p1809
F1.0
sa(dp1810
Vusage
p1811
F0.0
sVmetric
p1812
VPREEMPTIBLE_NVIDIA_P100_VWS_GPUS
p1813
sVlimit
p1814
F1.0
sa(dp1815
Vusage
p1816
F0.0
sVmetric
p1817
VPREEMPTIBLE_NVIDIA_P4_VWS_GPUS
p1818
sVlimit
p1819
F1.0
sa(dp1820
Vusage
p1821
F0.0
sVmetric
p1822
VINTERCONNECT_ATTACHMENTS_PER_REGION
p1823
sVlimit
p1824
F16.0
sa(dp1825
Vusage
p1826
F0.0
sVmetric
p1827
VINTERCONNECT_ATTACHMENTS_TOTAL_MBPS
p1828
sVlimit
p1829
F80000.0
sa(dp1830
Vusage
p1831
F0.0
sVmetric
p1832
VRESOURCE_POLICIES
p1833
sVlimit
p1834
F10.0
sa(dp1835
Vusage
p1836
F0.0
sVmetric
p1837
VIN_USE_BACKUP_SCHEDULES
p1838
sVlimit
p1839
F50.0
sa(dp1840
Vusage
p1841
F0.0
sVmetric
p1842
VNVIDIA_T4_GPUS
p1843
sVlimit
p1844
F1.0
sa(dp1845
Vusage
p1846
F0.0
sVmetric
p1847
VNVIDIA_T4_VWS_GPUS
p1848
sVlimit
p1849
F1.0
sa(dp1850
Vusage
p1851
F0.0
sVmetric
p1852
VPREEMPTIBLE_NVIDIA_T4_GPUS
p1853
sVlimit
p1854
F1.0
sa(dp1855
Vusage
p1856
F0.0
sVmetric
p1857
VPREEMPTIBLE_NVIDIA_T4_VWS_GPUS
p1858
sVlimit
p1859
F1.0
sasg258
(lp1860
g2
(g260
g4
Ntp1861
Rp1862
(dp1863
g10
VUP
p1864
sg265
Nsg46
Veurope-west1-b
p1865
sg8
(dp1866
g268
Vhttps://www.googleapis.com/compute/v1/projects/libcloud-221521/regions/europe-west1
p1867
sg71
V1969-12-31T16:00:00.000-08:00
p1868
sg14
Veurope-west1-b
p1869
sg51
Vhttps://www.googleapis.com/compute/v1/projects/libcloud-221521/zones/europe-west1-b
p1870
ssg75
Nsg54
g57
sg273
Veurope
p1871
sg275
S'2101'
p1872
sbag2
(g260
g4
Ntp1873
Rp1874
(dp1875
g10
VUP
p1876
sg265
Nsg46
Veurope-west1-c
p1877
sg8
(dp1878
g268
Vhttps://www.googleapis.com/compute/v1/projects/libcloud-221521/regions/europe-west1
p1879
sg71
V1969-12-31T16:00:00.000-08:00
p1880
sg14
Veurope-west1-c
p1881
sg51
Vhttps://www.googleapis.com/compute/v1/projects/libcloud-221521/zones/europe-west1-c
p1882
ssg75
Nsg54
g57
sg273
Veurope
p1883
sg275
S'2103'
p1884
sbag2
(g260
g4
Ntp1885
Rp1886
(dp1887
g10
VUP
p1888
sg265
Nsg46
Veurope-west1-d
p1889
sg8
(dp1890
g268
Vhttps://www.googleapis.com/compute/v1/projects/libcloud-221521/regions/europe-west1
p1891
sg71
V1969-12-31T16:00:00.000-08:00
p1892
sg14
Veurope-west1-d
p1893
sg51
Vhttps://www.googleapis.com/compute/v1/projects/libcloud-221521/zones/europe-west1-d
p1894
ssg75
Nsg54
g57
sg273
Veurope
p1895
sg275
S'2104'
p1896
sbasg275
S'1100'
p1897
sbag2
(g64
g4
Ntp1898
Rp1899
(dp1900
g10
VUP
p1901
sg46
Veurope-west2
p1902
sg8
(dp1903
g71
V1969-12-31T16:00:00.000-08:00
p1904
sg14
Veurope-west2
p1905
sg51
Vhttps://www.googleapis.com/compute/v1/projects/libcloud-221521/regions/europe-west2
p1906
ssg75
Nsg53
Nsg54
g57
sg76
(lp1907
(dp1908
Vusage
p1909
F0.0
sVmetric
p1910
VCPUS
p1911
sVlimit
p1912
F8.0
sa(dp1913
Vusage
p1914
F0.0
sVmetric
p1915
VDISKS_TOTAL_GB
p1916
sVlimit
p1917
F2048.0
sa(dp1918
Vusage
p1919
F0.0
sVmetric
p1920
VSTATIC_ADDRESSES
p1921
sVlimit
p1922
F1.0
sa(dp1923
Vusage
p1924
F0.0
sVmetric
p1925
VIN_USE_ADDRESSES
p1926
sVlimit
p1927
F8.0
sa(dp1928
Vusage
p1929
F0.0
sVmetric
p1930
VSSD_TOTAL_GB
p1931
sVlimit
p1932
F100.0
sa(dp1933
Vusage
p1934
F0.0
sVmetric
p1935
VLOCAL_SSD_TOTAL_GB
p1936
sVlimit
p1937
F1500.0
sa(dp1938
Vusage
p1939
F0.0
sVmetric
p1940
VINSTANCE_GROUPS
p1941
sVlimit
p1942
F100.0
sa(dp1943
Vusage
p1944
F0.0
sVmetric
p1945
VINSTANCE_GROUP_MANAGERS
p1946
sVlimit
p1947
F50.0
sa(dp1948
Vusage
p1949
F0.0
sVmetric
p1950
VINSTANCES
p1951
sVlimit
p1952
F80.0
sa(dp1953
Vusage
p1954
F0.0
sVmetric
p1955
VAUTOSCALERS
p1956
sVlimit
p1957
F50.0
sa(dp1958
Vusage
p1959
F0.0
sVmetric
p1960
VREGIONAL_AUTOSCALERS
p1961
sVlimit
p1962
F20.0
sa(dp1963
Vusage
p1964
F0.0
sVmetric
p1965
VREGIONAL_INSTANCE_GROUP_MANAGERS
p1966
sVlimit
p1967
F20.0
sa(dp1968
Vusage
p1969
F0.0
sVmetric
p1970
VPREEMPTIBLE_CPUS
p1971
sVlimit
p1972
F0.0
sa(dp1973
Vusage
p1974
F0.0
sVmetric
p1975
VNVIDIA_K80_GPUS
p1976
sVlimit
p1977
F1.0
sa(dp1978
Vusage
p1979
F0.0
sVmetric
p1980
VCOMMITMENTS
p1981
sVlimit
p1982
F0.0
sa(dp1983
Vusage
p1984
F0.0
sVmetric
p1985
VINTERNAL_ADDRESSES
p1986
sVlimit
p1987
F200.0
sa(dp1988
Vusage
p1989
F0.0
sVmetric
p1990
VNVIDIA_P100_GPUS
p1991
sVlimit
p1992
F1.0
sa(dp1993
Vusage
p1994
F0.0
sVmetric
p1995
VPREEMPTIBLE_LOCAL_SSD_GB
p1996
sVlimit
p1997
F0.0
sa(dp1998
Vusage
p1999
F0.0
sVmetric
p2000
VPREEMPTIBLE_NVIDIA_K80_GPUS
p2001
sVlimit
p2002
F1.0
sa(dp2003
Vusage
p2004
F0.0
sVmetric
p2005
VPREEMPTIBLE_NVIDIA_P100_GPUS
p2006
sVlimit
p2007
F1.0
sa(dp2008
Vusage
p2009
F0.0
sVmetric
p2010
VNVIDIA_P100_VWS_GPUS
p2011
sVlimit
p2012
F1.0
sa(dp2013
Vusage
p2014
F0.0
sVmetric
p2015
VNVIDIA_V100_GPUS
p2016
sVlimit
p2017
F1.0
sa(dp2018
Vusage
p2019
F0.0
sVmetric
p2020
VNVIDIA_P4_GPUS
p2021
sVlimit
p2022
F1.0
sa(dp2023
Vusage
p2024
F0.0
sVmetric
p2025
VNVIDIA_P4_VWS_GPUS
p2026
sVlimit
p2027
F1.0
sa(dp2028
Vusage
p2029
F0.0
sVmetric
p2030
VPREEMPTIBLE_NVIDIA_V100_GPUS
p2031
sVlimit
p2032
F1.0
sa(dp2033
Vusage
p2034
F0.0
sVmetric
p2035
VPREEMPTIBLE_NVIDIA_P4_GPUS
p2036
sVlimit
p2037
F1.0
sa(dp2038
Vusage
p2039
F0.0
sVmetric
p2040
VPREEMPTIBLE_NVIDIA_P100_VWS_GPUS
p2041
sVlimit
p2042
F1.0
sa(dp2043
Vusage
p2044
F0.0
sVmetric
p2045
VPREEMPTIBLE_NVIDIA_P4_VWS_GPUS
p2046
sVlimit
p2047
F1.0
sa(dp2048
Vusage
p2049
F0.0
sVmetric
p2050
VINTERCONNECT_ATTACHMENTS_PER_REGION
p2051
sVlimit
p2052
F16.0
sa(dp2053
Vusage
p2054
F0.0
sVmetric
p2055
VINTERCONNECT_ATTACHMENTS_TOTAL_MBPS
p2056
sVlimit
p2057
F80000.0
sa(dp2058
Vusage
p2059
F0.0
sVmetric
p2060
VRESOURCE_POLICIES
p2061
sVlimit
p2062
F5.0
sa(dp2063
Vusage
p2064
F0.0
sVmetric
p2065
VIN_USE_BACKUP_SCHEDULES
p2066
sVlimit
p2067
F20.0
sa(dp2068
Vusage
p2069
F0.0
sVmetric
p2070
VNVIDIA_T4_GPUS
p2071
sVlimit
p2072
F1.0
sa(dp2073
Vusage
p2074
F0.0
sVmetric
p2075
VNVIDIA_T4_VWS_GPUS
p2076
sVlimit
p2077
F1.0
sa(dp2078
Vusage
p2079
F0.0
sVmetric
p2080
VPREEMPTIBLE_NVIDIA_T4_GPUS
p2081
sVlimit
p2082
F1.0
sa(dp2083
Vusage
p2084
F0.0
sVmetric
p2085
VPREEMPTIBLE_NVIDIA_T4_VWS_GPUS
p2086
sVlimit
p2087
F1.0
sasg258
(lp2088
g2
(g260
g4
Ntp2089
Rp2090
(dp2091
g10
VUP
p2092
sg265
Nsg46
Veurope-west2-a
p2093
sg8
(dp2094
g268
Vhttps://www.googleapis.com/compute/v1/projects/libcloud-221521/regions/europe-west2
p2095
sg71
V1969-12-31T16:00:00.000-08:00
p2096
sg14
Veurope-west2-a
p2097
sg51
Vhttps://www.googleapis.com/compute/v1/projects/libcloud-221521/zones/europe-west2-a
p2098
ssg75
Nsg54
g57
sg273
Veurope
p2099
sg275
S'2290'
p2100
sbag2
(g260
g4
Ntp2101
Rp2102
(dp2103
g10
VUP
p2104
sg265
Nsg46
Veurope-west2-b
p2105
sg8
(dp2106
g268
Vhttps://www.googleapis.com/compute/v1/projects/libcloud-221521/regions/europe-west2
p2107
sg71
V1969-12-31T16:00:00.000-08:00
p2108
sg14
Veurope-west2-b
p2109
sg51
Vhttps://www.googleapis.com/compute/v1/projects/libcloud-221521/zones/europe-west2-b
p2110
ssg75
Nsg54
g57
sg273
Veurope
p2111
sg275
S'2291'
p2112
sbag2
(g260
g4
Ntp2113
Rp2114
(dp2115
g10
VUP
p2116
sg265
Nsg46
Veurope-west2-c
p2117
sg8
(dp2118
g268
Vhttps://www.googleapis.com/compute/v1/projects/libcloud-221521/regions/europe-west2
p2119
sg71
V1969-12-31T16:00:00.000-08:00
p2120
sg14
Veurope-west2-c
p2121
sg51
Vhttps://www.googleapis.com/compute/v1/projects/libcloud-221521/zones/europe-west2-c
p2122
ssg75
Nsg54
g57
sg273
Veurope
p2123
sg275
S'2292'
p2124
sbasg275
S'1290'
p2125
sbag2
(g64
g4
Ntp2126
Rp2127
(dp2128
g10
VUP
p2129
sg46
Veurope-west3
p2130
sg8
(dp2131
g71
V1969-12-31T16:00:00.000-08:00
p2132
sg14
Veurope-west3
p2133
sg51
Vhttps://www.googleapis.com/compute/v1/projects/libcloud-221521/regions/europe-west3
p2134
ssg75
Nsg53
Nsg54
g57
sg76
(lp2135
(dp2136
Vusage
p2137
F0.0
sVmetric
p2138
VCPUS
p2139
sVlimit
p2140
F72.0
sa(dp2141
Vusage
p2142
F0.0
sVmetric
p2143
VDISKS_TOTAL_GB
p2144
sVlimit
p2145
F40960.0
sa(dp2146
Vusage
p2147
F0.0
sVmetric
p2148
VSTATIC_ADDRESSES
p2149
sVlimit
p2150
F21.0
sa(dp2151
Vusage
p2152
F0.0
sVmetric
p2153
VIN_USE_ADDRESSES
p2154
sVlimit
p2155
F69.0
sa(dp2156
Vusage
p2157
F0.0
sVmetric
p2158
VSSD_TOTAL_GB
p2159
sVlimit
p2160
F20480.0
sa(dp2161
Vusage
p2162
F0.0
sVmetric
p2163
VLOCAL_SSD_TOTAL_GB
p2164
sVlimit
p2165
F20000.0
sa(dp2166
Vusage
p2167
F0.0
sVmetric
p2168
VINSTANCE_GROUPS
p2169
sVlimit
p2170
F300.0
sa(dp2171
Vusage
p2172
F0.0
sVmetric
p2173
VINSTANCE_GROUP_MANAGERS
p2174
sVlimit
p2175
F150.0
sa(dp2176
Vusage
p2177
F0.0
sVmetric
p2178
VINSTANCES
p2179
sVlimit
p2180
F720.0
sa(dp2181
Vusage
p2182
F0.0
sVmetric
p2183
VAUTOSCALERS
p2184
sVlimit
p2185
F150.0
sa(dp2186
Vusage
p2187
F0.0
sVmetric
p2188
VREGIONAL_AUTOSCALERS
p2189
sVlimit
p2190
F100.0
sa(dp2191
Vusage
p2192
F0.0
sVmetric
p2193
VREGIONAL_INSTANCE_GROUP_MANAGERS
p2194
sVlimit
p2195
F100.0
sa(dp2196
Vusage
p2197
F0.0
sVmetric
p2198
VPREEMPTIBLE_CPUS
p2199
sVlimit
p2200
F0.0
sa(dp2201
Vusage
p2202
F0.0
sVmetric
p2203
VNVIDIA_K80_GPUS
p2204
sVlimit
p2205
F8.0
sa(dp2206
Vusage
p2207
F0.0
sVmetric
p2208
VCOMMITMENTS
p2209
sVlimit
p2210
F0.0
sa(dp2211
Vusage
p2212
F0.0
sVmetric
p2213
VINTERNAL_ADDRESSES
p2214
sVlimit
p2215
F200.0
sa(dp2216
Vusage
p2217
F0.0
sVmetric
p2218
VNVIDIA_P100_GPUS
p2219
sVlimit
p2220
F1.0
sa(dp2221
Vusage
p2222
F0.0
sVmetric
p2223
VPREEMPTIBLE_LOCAL_SSD_GB
p2224
sVlimit
p2225
F0.0
sa(dp2226
Vusage
p2227
F0.0
sVmetric
p2228
VPREEMPTIBLE_NVIDIA_K80_GPUS
p2229
sVlimit
p2230
F1.0
sa(dp2231
Vusage
p2232
F0.0
sVmetric
p2233
VPREEMPTIBLE_NVIDIA_P100_GPUS
p2234
sVlimit
p2235
F1.0
sa(dp2236
Vusage
p2237
F0.0
sVmetric
p2238
VNVIDIA_P100_VWS_GPUS
p2239
sVlimit
p2240
F1.0
sa(dp2241
Vusage
p2242
F0.0
sVmetric
p2243
VNVIDIA_V100_GPUS
p2244
sVlimit
p2245
F1.0
sa(dp2246
Vusage
p2247
F0.0
sVmetric
p2248
VNVIDIA_P4_GPUS
p2249
sVlimit
p2250
F1.0
sa(dp2251
Vusage
p2252
F0.0
sVmetric
p2253
VNVIDIA_P4_VWS_GPUS
p2254
sVlimit
p2255
F1.0
sa(dp2256
Vusage
p2257
F0.0
sVmetric
p2258
VPREEMPTIBLE_NVIDIA_V100_GPUS
p2259
sVlimit
p2260
F1.0
sa(dp2261
Vusage
p2262
F0.0
sVmetric
p2263
VPREEMPTIBLE_NVIDIA_P4_GPUS
p2264
sVlimit
p2265
F1.0
sa(dp2266
Vusage
p2267
F0.0
sVmetric
p2268
VPREEMPTIBLE_NVIDIA_P100_VWS_GPUS
p2269
sVlimit
p2270
F1.0
sa(dp2271
Vusage
p2272
F0.0
sVmetric
p2273
VPREEMPTIBLE_NVIDIA_P4_VWS_GPUS
p2274
sVlimit
p2275
F1.0
sa(dp2276
Vusage
p2277
F0.0
sVmetric
p2278
VINTERCONNECT_ATTACHMENTS_PER_REGION
p2279
sVlimit
p2280
F16.0
sa(dp2281
Vusage
p2282
F0.0
sVmetric
p2283
VINTERCONNECT_ATTACHMENTS_TOTAL_MBPS
p2284
sVlimit
p2285
F80000.0
sa(dp2286
Vusage
p2287
F0.0
sVmetric
p2288
VRESOURCE_POLICIES
p2289
sVlimit
p2290
F10.0
sa(dp2291
Vusage
p2292
F0.0
sVmetric
p2293
VIN_USE_BACKUP_SCHEDULES
p2294
sVlimit
p2295
F50.0
sa(dp2296
Vusage
p2297
F0.0
sVmetric
p2298
VNVIDIA_T4_GPUS
p2299
sVlimit
p2300
F1.0
sa(dp2301
Vusage
p2302
F0.0
sVmetric
p2303
VNVIDIA_T4_VWS_GPUS
p2304
sVlimit
p2305
F1.0
sa(dp2306
Vusage
p2307
F0.0
sVmetric
p2308
VPREEMPTIBLE_NVIDIA_T4_GPUS
p2309
sVlimit
p2310
F1.0
sa(dp2311
Vusage
p2312
F0.0
sVmetric
p2313
VPREEMPTIBLE_NVIDIA_T4_VWS_GPUS
p2314
sVlimit
p2315
F1.0
sasg258
(lp2316
g2
(g260
g4
Ntp2317
Rp2318
(dp2319
g10
VUP
p2320
sg265
Nsg46
Veurope-west3-c
p2321
sg8
(dp2322
g268
Vhttps://www.googleapis.com/compute/v1/projects/libcloud-221521/regions/europe-west3
p2323
sg71
V1969-12-31T16:00:00.000-08:00
p2324
sg14
Veurope-west3-c
p2325
sg51
Vhttps://www.googleapis.com/compute/v1/projects/libcloud-221521/zones/europe-west3-c
p2326
ssg75
Nsg54
g57
sg273
Veurope
p2327
sg275
S'2300'
p2328
sbag2
(g260
g4
Ntp2329
Rp2330
(dp2331
g10
VUP
p2332
sg265
Nsg46
Veurope-west3-a
p2333
sg8
(dp2334
g268
Vhttps://www.googleapis.com/compute/v1/projects/libcloud-221521/regions/europe-west3
p2335
sg71
V1969-12-31T16:00:00.000-08:00
p2336
sg14
Veurope-west3-a
p2337
sg51
Vhttps://www.googleapis.com/compute/v1/projects/libcloud-221521/zones/europe-west3-a
p2338
ssg75
Nsg54
g57
sg273
Veurope
p2339
sg275
S'2301'
p2340
sbag2
(g260
g4
Ntp2341
Rp2342
(dp2343
g10
VUP
p2344
sg265
Nsg46
Veurope-west3-b
p2345
sg8
(dp2346
g268
Vhttps://www.googleapis.com/compute/v1/projects/libcloud-221521/regions/europe-west3
p2347
sg71
V1969-12-31T16:00:00.000-08:00
p2348
sg14
Veurope-west3-b
p2349
sg51
Vhttps://www.googleapis.com/compute/v1/projects/libcloud-221521/zones/europe-west3-b
p2350
ssg75
Nsg54
g57
sg273
Veurope
p2351
sg275
S'2302'
p2352
sbasg275
S'1300'
p2353
sbag2
(g64
g4
Ntp2354
Rp2355
(dp2356
g10
VUP
p2357
sg46
Veurope-west4
p2358
sg8
(dp2359
g71
V1969-12-31T16:00:00.000-08:00
p2360
sg14
Veurope-west4
p2361
sg51
Vhttps://www.googleapis.com/compute/v1/projects/libcloud-221521/regions/europe-west4
p2362
ssg75
Nsg53
Nsg54
g57
sg76
(lp2363
(dp2364
Vusage
p2365
F0.0
sVmetric
p2366
VCPUS
p2367
sVlimit
p2368
F72.0
sa(dp2369
Vusage
p2370
F0.0
sVmetric
p2371
VDISKS_TOTAL_GB
p2372
sVlimit
p2373
F40960.0
sa(dp2374
Vusage
p2375
F0.0
sVmetric
p2376
VSTATIC_ADDRESSES
p2377
sVlimit
p2378
F21.0
sa(dp2379
Vusage
p2380
F0.0
sVmetric
p2381
VIN_USE_ADDRESSES
p2382
sVlimit
p2383
F69.0
sa(dp2384
Vusage
p2385
F0.0
sVmetric
p2386
VSSD_TOTAL_GB
p2387
sVlimit
p2388
F20480.0
sa(dp2389
Vusage
p2390
F0.0
sVmetric
p2391
VLOCAL_SSD_TOTAL_GB
p2392
sVlimit
p2393
F20000.0
sa(dp2394
Vusage
p2395
F0.0
sVmetric
p2396
VINSTANCE_GROUPS
p2397
sVlimit
p2398
F300.0
sa(dp2399
Vusage
p2400
F0.0
sVmetric
p2401
VINSTANCE_GROUP_MANAGERS
p2402
sVlimit
p2403
F150.0
sa(dp2404
Vusage
p2405
F0.0
sVmetric
p2406
VINSTANCES
p2407
sVlimit
p2408
F720.0
sa(dp2409
Vusage
p2410
F0.0
sVmetric
p2411
VAUTOSCALERS
p2412
sVlimit
p2413
F150.0
sa(dp2414
Vusage
p2415
F0.0
sVmetric
p2416
VREGIONAL_AUTOSCALERS
p2417
sVlimit
p2418
F100.0
sa(dp2419
Vusage
p2420
F0.0
sVmetric
p2421
VREGIONAL_INSTANCE_GROUP_MANAGERS
p2422
sVlimit
p2423
F100.0
sa(dp2424
Vusage
p2425
F0.0
sVmetric
p2426
VPREEMPTIBLE_CPUS
p2427
sVlimit
p2428
F0.0
sa(dp2429
Vusage
p2430
F0.0
sVmetric
p2431
VNVIDIA_K80_GPUS
p2432
sVlimit
p2433
F8.0
sa(dp2434
Vusage
p2435
F0.0
sVmetric
p2436
VCOMMITMENTS
p2437
sVlimit
p2438
F0.0
sa(dp2439
Vusage
p2440
F0.0
sVmetric
p2441
VINTERNAL_ADDRESSES
p2442
sVlimit
p2443
F200.0
sa(dp2444
Vusage
p2445
F0.0
sVmetric
p2446
VNVIDIA_P100_GPUS
p2447
sVlimit
p2448
F1.0
sa(dp2449
Vusage
p2450
F0.0
sVmetric
p2451
VPREEMPTIBLE_LOCAL_SSD_GB
p2452
sVlimit
p2453
F0.0
sa(dp2454
Vusage
p2455
F0.0
sVmetric
p2456
VPREEMPTIBLE_NVIDIA_K80_GPUS
p2457
sVlimit
p2458
F1.0
sa(dp2459
Vusage
p2460
F0.0
sVmetric
p2461
VPREEMPTIBLE_NVIDIA_P100_GPUS
p2462
sVlimit
p2463
F1.0
sa(dp2464
Vusage
p2465
F0.0
sVmetric
p2466
VNVIDIA_P100_VWS_GPUS
p2467
sVlimit
p2468
F1.0
sa(dp2469
Vusage
p2470
F0.0
sVmetric
p2471
VNVIDIA_V100_GPUS
p2472
sVlimit
p2473
F1.0
sa(dp2474
Vusage
p2475
F0.0
sVmetric
p2476
VNVIDIA_P4_GPUS
p2477
sVlimit
p2478
F1.0
sa(dp2479
Vusage
p2480
F0.0
sVmetric
p2481
VNVIDIA_P4_VWS_GPUS
p2482
sVlimit
p2483
F1.0
sa(dp2484
Vusage
p2485
F0.0
sVmetric
p2486
VPREEMPTIBLE_NVIDIA_V100_GPUS
p2487
sVlimit
p2488
F1.0
sa(dp2489
Vusage
p2490
F0.0
sVmetric
p2491
VPREEMPTIBLE_NVIDIA_P4_GPUS
p2492
sVlimit
p2493
F1.0
sa(dp2494
Vusage
p2495
F0.0
sVmetric
p2496
VPREEMPTIBLE_NVIDIA_P100_VWS_GPUS
p2497
sVlimit
p2498
F1.0
sa(dp2499
Vusage
p2500
F0.0
sVmetric
p2501
VPREEMPTIBLE_NVIDIA_P4_VWS_GPUS
p2502
sVlimit
p2503
F1.0
sa(dp2504
Vusage
p2505
F0.0
sVmetric
p2506
VINTERCONNECT_ATTACHMENTS_PER_REGION
p2507
sVlimit
p2508
F16.0
sa(dp2509
Vusage
p2510
F0.0
sVmetric
p2511
VINTERCONNECT_ATTACHMENTS_TOTAL_MBPS
p2512
sVlimit
p2513
F80000.0
sa(dp2514
Vusage
p2515
F0.0
sVmetric
p2516
VRESOURCE_POLICIES
p2517
sVlimit
p2518
F10.0
sa(dp2519
Vusage
p2520
F0.0
sVmetric
p2521
VIN_USE_BACKUP_SCHEDULES
p2522
sVlimit
p2523
F50.0
sa(dp2524
Vusage
p2525
F0.0
sVmetric
p2526
VNVIDIA_T4_GPUS
p2527
sVlimit
p2528
F1.0
sa(dp2529
Vusage
p2530
F0.0
sVmetric
p2531
VNVIDIA_T4_VWS_GPUS
p2532
sVlimit
p2533
F1.0
sa(dp2534
Vusage
p2535
F0.0
sVmetric
p2536
VPREEMPTIBLE_NVIDIA_T4_GPUS
p2537
sVlimit
p2538
F1.0
sa(dp2539
Vusage
p2540
F0.0
sVmetric
p2541
VPREEMPTIBLE_NVIDIA_T4_VWS_GPUS
p2542
sVlimit
p2543
F1.0
sasg258
(lp2544
g2
(g260
g4
Ntp2545
Rp2546
(dp2547
g10
VUP
p2548
sg265
Nsg46
Veurope-west4-c
p2549
sg8
(dp2550
g268
Vhttps://www.googleapis.com/compute/v1/projects/libcloud-221521/regions/europe-west4
p2551
sg71
V1969-12-31T16:00:00.000-08:00
p2552
sg14
Veurope-west4-c
p2553
sg51
Vhttps://www.googleapis.com/compute/v1/projects/libcloud-221521/zones/europe-west4-c
p2554
ssg75
Nsg54
g57
sg273
Veurope
p2555
sg275
S'2340'
p2556
sbag2
(g260
g4
Ntp2557
Rp2558
(dp2559
g10
VUP
p2560
sg265
Nsg46
Veurope-west4-b
p2561
sg8
(dp2562
g268
Vhttps://www.googleapis.com/compute/v1/projects/libcloud-221521/regions/europe-west4
p2563
sg71
V1969-12-31T16:00:00.000-08:00
p2564
sg14
Veurope-west4-b
p2565
sg51
Vhttps://www.googleapis.com/compute/v1/projects/libcloud-221521/zones/europe-west4-b
p2566
ssg75
Nsg54
g57
sg273
Veurope
p2567
sg275
S'2341'
p2568
sbag2
(g260
g4
Ntp2569
Rp2570
(dp2571
g10
VUP
p2572
sg265
Nsg46
Veurope-west4-a
p2573
sg8
(dp2574
g268
Vhttps://www.googleapis.com/compute/v1/projects/libcloud-221521/regions/europe-west4
p2575
sg71
V1969-12-31T16:00:00.000-08:00
p2576
sg14
Veurope-west4-a
p2577
sg51
Vhttps://www.googleapis.com/compute/v1/projects/libcloud-221521/zones/europe-west4-a
p2578
ssg75
Nsg54
g57
sg273
Veurope
p2579
sg275
S'2342'
p2580
sbasg275
S'1340'
p2581
sbag2
(g64
g4
Ntp2582
Rp2583
(dp2584
g10
VUP
p2585
sg46
Vnorthamerica-northeast1
p2586
sg8
(dp2587
g71
V1969-12-31T16:00:00.000-08:00
p2588
sg14
Vnorthamerica-northeast1
p2589
sg51
Vhttps://www.googleapis.com/compute/v1/projects/libcloud-221521/regions/northamerica-northeast1
p2590
ssg75
Nsg53
Nsg54
g57
sg76
(lp2591
(dp2592
Vusage
p2593
F0.0
sVmetric
p2594
VCPUS
p2595
sVlimit
p2596
F8.0
sa(dp2597
Vusage
p2598
F0.0
sVmetric
p2599
VDISKS_TOTAL_GB
p2600
sVlimit
p2601
F2048.0
sa(dp2602
Vusage
p2603
F0.0
sVmetric
p2604
VSTATIC_ADDRESSES
p2605
sVlimit
p2606
F1.0
sa(dp2607
Vusage
p2608
F0.0
sVmetric
p2609
VIN_USE_ADDRESSES
p2610
sVlimit
p2611
F8.0
sa(dp2612
Vusage
p2613
F0.0
sVmetric
p2614
VSSD_TOTAL_GB
p2615
sVlimit
p2616
F100.0
sa(dp2617
Vusage
p2618
F0.0
sVmetric
p2619
VLOCAL_SSD_TOTAL_GB
p2620
sVlimit
p2621
F1500.0
sa(dp2622
Vusage
p2623
F0.0
sVmetric
p2624
VINSTANCE_GROUPS
p2625
sVlimit
p2626
F100.0
sa(dp2627
Vusage
p2628
F0.0
sVmetric
p2629
VINSTANCE_GROUP_MANAGERS
p2630
sVlimit
p2631
F50.0
sa(dp2632
Vusage
p2633
F0.0
sVmetric
p2634
VINSTANCES
p2635
sVlimit
p2636
F80.0
sa(dp2637
Vusage
p2638
F0.0
sVmetric
p2639
VAUTOSCALERS
p2640
sVlimit
p2641
F50.0
sa(dp2642
Vusage
p2643
F0.0
sVmetric
p2644
VREGIONAL_AUTOSCALERS
p2645
sVlimit
p2646
F20.0
sa(dp2647
Vusage
p2648
F0.0
sVmetric
p2649
VREGIONAL_INSTANCE_GROUP_MANAGERS
p2650
sVlimit
p2651
F20.0
sa(dp2652
Vusage
p2653
F0.0
sVmetric
p2654
VPREEMPTIBLE_CPUS
p2655
sVlimit
p2656
F0.0
sa(dp2657
Vusage
p2658
F0.0
sVmetric
p2659
VNVIDIA_K80_GPUS
p2660
sVlimit
p2661
F1.0
sa(dp2662
Vusage
p2663
F0.0
sVmetric
p2664
VCOMMITMENTS
p2665
sVlimit
p2666
F0.0
sa(dp2667
Vusage
p2668
F0.0
sVmetric
p2669
VINTERNAL_ADDRESSES
p2670
sVlimit
p2671
F200.0
sa(dp2672
Vusage
p2673
F0.0
sVmetric
p2674
VNVIDIA_P100_GPUS
p2675
sVlimit
p2676
F1.0
sa(dp2677
Vusage
p2678
F0.0
sVmetric
p2679
VPREEMPTIBLE_LOCAL_SSD_GB
p2680
sVlimit
p2681
F0.0
sa(dp2682
Vusage
p2683
F0.0
sVmetric
p2684
VPREEMPTIBLE_NVIDIA_K80_GPUS
p2685
sVlimit
p2686
F1.0
sa(dp2687
Vusage
p2688
F0.0
sVmetric
p2689
VPREEMPTIBLE_NVIDIA_P100_GPUS
p2690
sVlimit
p2691
F1.0
sa(dp2692
Vusage
p2693
F0.0
sVmetric
p2694
VNVIDIA_P100_VWS_GPUS
p2695
sVlimit
p2696
F1.0
sa(dp2697
Vusage
p2698
F0.0
sVmetric
p2699
VNVIDIA_V100_GPUS
p2700
sVlimit
p2701
F1.0
sa(dp2702
Vusage
p2703
F0.0
sVmetric
p2704
VNVIDIA_P4_GPUS
p2705
sVlimit
p2706
F1.0
sa(dp2707
Vusage
p2708
F0.0
sVmetric
p2709
VNVIDIA_P4_VWS_GPUS
p2710
sVlimit
p2711
F1.0
sa(dp2712
Vusage
p2713
F0.0
sVmetric
p2714
VPREEMPTIBLE_NVIDIA_V100_GPUS
p2715
sVlimit
p2716
F1.0
sa(dp2717
Vusage
p2718
F0.0
sVmetric
p2719
VPREEMPTIBLE_NVIDIA_P4_GPUS
p2720
sVlimit
p2721
F1.0
sa(dp2722
Vusage
p2723
F0.0
sVmetric
p2724
VPREEMPTIBLE_NVIDIA_P100_VWS_GPUS
p2725
sVlimit
p2726
F1.0
sa(dp2727
Vusage
p2728
F0.0
sVmetric
p2729
VPREEMPTIBLE_NVIDIA_P4_VWS_GPUS
p2730
sVlimit
p2731
F1.0
sa(dp2732
Vusage
p2733
F0.0
sVmetric
p2734
VINTERCONNECT_ATTACHMENTS_PER_REGION
p2735
sVlimit
p2736
F16.0
sa(dp2737
Vusage
p2738
F0.0
sVmetric
p2739
VINTERCONNECT_ATTACHMENTS_TOTAL_MBPS
p2740
sVlimit
p2741
F80000.0
sa(dp2742
Vusage
p2743
F0.0
sVmetric
p2744
VRESOURCE_POLICIES
p2745
sVlimit
p2746
F5.0
sa(dp2747
Vusage
p2748
F0.0
sVmetric
p2749
VIN_USE_BACKUP_SCHEDULES
p2750
sVlimit
p2751
F20.0
sa(dp2752
Vusage
p2753
F0.0
sVmetric
p2754
VNVIDIA_T4_GPUS
p2755
sVlimit
p2756
F1.0
sa(dp2757
Vusage
p2758
F0.0
sVmetric
p2759
VNVIDIA_T4_VWS_GPUS
p2760
sVlimit
p2761
F1.0
sa(dp2762
Vusage
p2763
F0.0
sVmetric
p2764
VPREEMPTIBLE_NVIDIA_T4_GPUS
p2765
sVlimit
p2766
F1.0
sa(dp2767
Vusage
p2768
F0.0
sVmetric
p2769
VPREEMPTIBLE_NVIDIA_T4_VWS_GPUS
p2770
sVlimit
p2771
F1.0
sasg258
(lp2772
g2
(g260
g4
Ntp2773
Rp2774
(dp2775
g10
VUP
p2776
sg265
Nsg46
Vnorthamerica-northeast1-a
p2777
sg8
(dp2778
g268
Vhttps://www.googleapis.com/compute/v1/projects/libcloud-221521/regions/northamerica-northeast1
p2779
sg71
V1969-12-31T16:00:00.000-08:00
p2780
sg14
Vnorthamerica-northeast1-a
p2781
sg51
Vhttps://www.googleapis.com/compute/v1/projects/libcloud-221521/zones/northamerica-northeast1-a
p2782
ssg75
Nsg54
g57
sg273
Vnorthamerica
p2783
sg275
S'2330'
p2784
sbag2
(g260
g4
Ntp2785
Rp2786
(dp2787
g10
VUP
p2788
sg265
Nsg46
Vnorthamerica-northeast1-b
p2789
sg8
(dp2790
g268
Vhttps://www.googleapis.com/compute/v1/projects/libcloud-221521/regions/northamerica-northeast1
p2791
sg71
V1969-12-31T16:00:00.000-08:00
p2792
sg14
Vnorthamerica-northeast1-b
p2793
sg51
Vhttps://www.googleapis.com/compute/v1/projects/libcloud-221521/zones/northamerica-northeast1-b
p2794
ssg75
Nsg54
g57
sg273
Vnorthamerica
p2795
sg275
S'2331'
p2796
sbag2
(g260
g4
Ntp2797
Rp2798
(dp2799
g10
VUP
p2800
sg265
Nsg46
Vnorthamerica-northeast1-c
p2801
sg8
(dp2802
g268
Vhttps://www.googleapis.com/compute/v1/projects/libcloud-221521/regions/northamerica-northeast1
p2803
sg71
V1969-12-31T16:00:00.000-08:00
p2804
sg14
Vnorthamerica-northeast1-c
p2805
sg51
Vhttps://www.googleapis.com/compute/v1/projects/libcloud-221521/zones/northamerica-northeast1-c
p2806
ssg75
Nsg54
g57
sg273
Vnorthamerica
p2807
sg275
S'2332'
p2808
sbasg275
S'1330'
p2809
sbag2
(g64
g4
Ntp2810
Rp2811
(dp2812
g10
VUP
p2813
sg46
Vsouthamerica-east1
p2814
sg8
(dp2815
g71
V1969-12-31T16:00:00.000-08:00
p2816
sg14
Vsouthamerica-east1
p2817
sg51
Vhttps://www.googleapis.com/compute/v1/projects/libcloud-221521/regions/southamerica-east1
p2818
ssg75
Nsg53
Nsg54
g57
sg76
(lp2819
(dp2820
Vusage
p2821
F0.0
sVmetric
p2822
VCPUS
p2823
sVlimit
p2824
F8.0
sa(dp2825
Vusage
p2826
F0.0
sVmetric
p2827
VDISKS_TOTAL_GB
p2828
sVlimit
p2829
F2048.0
sa(dp2830
Vusage
p2831
F0.0
sVmetric
p2832
VSTATIC_ADDRESSES
p2833
sVlimit
p2834
F1.0
sa(dp2835
Vusage
p2836
F0.0
sVmetric
p2837
VIN_USE_ADDRESSES
p2838
sVlimit
p2839
F8.0
sa(dp2840
Vusage
p2841
F0.0
sVmetric
p2842
VSSD_TOTAL_GB
p2843
sVlimit
p2844
F100.0
sa(dp2845
Vusage
p2846
F0.0
sVmetric
p2847
VLOCAL_SSD_TOTAL_GB
p2848
sVlimit
p2849
F1500.0
sa(dp2850
Vusage
p2851
F0.0
sVmetric
p2852
VINSTANCE_GROUPS
p2853
sVlimit
p2854
F100.0
sa(dp2855
Vusage
p2856
F0.0
sVmetric
p2857
VINSTANCE_GROUP_MANAGERS
p2858
sVlimit
p2859
F50.0
sa(dp2860
Vusage
p2861
F0.0
sVmetric
p2862
VINSTANCES
p2863
sVlimit
p2864
F80.0
sa(dp2865
Vusage
p2866
F0.0
sVmetric
p2867
VAUTOSCALERS
p2868
sVlimit
p2869
F50.0
sa(dp2870
Vusage
p2871
F0.0
sVmetric
p2872
VREGIONAL_AUTOSCALERS
p2873
sVlimit
p2874
F20.0
sa(dp2875
Vusage
p2876
F0.0
sVmetric
p2877
VREGIONAL_INSTANCE_GROUP_MANAGERS
p2878
sVlimit
p2879
F20.0
sa(dp2880
Vusage
p2881
F0.0
sVmetric
p2882
VPREEMPTIBLE_CPUS
p2883
sVlimit
p2884
F0.0
sa(dp2885
Vusage
p2886
F0.0
sVmetric
p2887
VNVIDIA_K80_GPUS
p2888
sVlimit
p2889
F1.0
sa(dp2890
Vusage
p2891
F0.0
sVmetric
p2892
VCOMMITMENTS
p2893
sVlimit
p2894
F0.0
sa(dp2895
Vusage
p2896
F0.0
sVmetric
p2897
VINTERNAL_ADDRESSES
p2898
sVlimit
p2899
F200.0
sa(dp2900
Vusage
p2901
F0.0
sVmetric
p2902
VNVIDIA_P100_GPUS
p2903
sVlimit
p2904
F1.0
sa(dp2905
Vusage
p2906
F0.0
sVmetric
p2907
VPREEMPTIBLE_LOCAL_SSD_GB
p2908
sVlimit
p2909
F0.0
sa(dp2910
Vusage
p2911
F0.0
sVmetric
p2912
VPREEMPTIBLE_NVIDIA_K80_GPUS
p2913
sVlimit
p2914
F1.0
sa(dp2915
Vusage
p2916
F0.0
sVmetric
p2917
VPREEMPTIBLE_NVIDIA_P100_GPUS
p2918
sVlimit
p2919
F1.0
sa(dp2920
Vusage
p2921
F0.0
sVmetric
p2922
VNVIDIA_P100_VWS_GPUS
p2923
sVlimit
p2924
F1.0
sa(dp2925
Vusage
p2926
F0.0
sVmetric
p2927
VNVIDIA_V100_GPUS
p2928
sVlimit
p2929
F1.0
sa(dp2930
Vusage
p2931
F0.0
sVmetric
p2932
VNVIDIA_P4_GPUS
p2933
sVlimit
p2934
F1.0
sa(dp2935
Vusage
p2936
F0.0
sVmetric
p2937
VNVIDIA_P4_VWS_GPUS
p2938
sVlimit
p2939
F1.0
sa(dp2940
Vusage
p2941
F0.0
sVmetric
p2942
VPREEMPTIBLE_NVIDIA_V100_GPUS
p2943
sVlimit
p2944
F1.0
sa(dp2945
Vusage
p2946
F0.0
sVmetric
p2947
VPREEMPTIBLE_NVIDIA_P4_GPUS
p2948
sVlimit
p2949
F1.0
sa(dp2950
Vusage
p2951
F0.0
sVmetric
p2952
VPREEMPTIBLE_NVIDIA_P100_VWS_GPUS
p2953
sVlimit
p2954
F1.0
sa(dp2955
Vusage
p2956
F0.0
sVmetric
p2957
VPREEMPTIBLE_NVIDIA_P4_VWS_GPUS
p2958
sVlimit
p2959
F1.0
sa(dp2960
Vusage
p2961
F0.0
sVmetric
p2962
VINTERCONNECT_ATTACHMENTS_PER_REGION
p2963
sVlimit
p2964
F16.0
sa(dp2965
Vusage
p2966
F0.0
sVmetric
p2967
VINTERCONNECT_ATTACHMENTS_TOTAL_MBPS
p2968
sVlimit
p2969
F80000.0
sa(dp2970
Vusage
p2971
F0.0
sVmetric
p2972
VRESOURCE_POLICIES
p2973
sVlimit
p2974
F5.0
sa(dp2975
Vusage
p2976
F0.0
sVmetric
p2977
VIN_USE_BACKUP_SCHEDULES
p2978
sVlimit
p2979
F20.0
sa(dp2980
Vusage
p2981
F0.0
sVmetric
p2982
VNVIDIA_T4_GPUS
p2983
sVlimit
p2984
F1.0
sa(dp2985
Vusage
p2986
F0.0
sVmetric
p2987
VNVIDIA_T4_VWS_GPUS
p2988
sVlimit
p2989
F1.0
sa(dp2990
Vusage
p2991
F0.0
sVmetric
p2992
VPREEMPTIBLE_NVIDIA_T4_GPUS
p2993
sVlimit
p2994
F1.0
sa(dp2995
Vusage
p2996
F0.0
sVmetric
p2997
VPREEMPTIBLE_NVIDIA_T4_VWS_GPUS
p2998
sVlimit
p2999
F1.0
sasg258
(lp3000
g2
(g260
g4
Ntp3001
Rp3002
(dp3003
g10
VUP
p3004
sg265
Nsg46
Vsouthamerica-east1-a
p3005
sg8
(dp3006
g268
Vhttps://www.googleapis.com/compute/v1/projects/libcloud-221521/regions/southamerica-east1
p3007
sg71
V1969-12-31T16:00:00.000-08:00
p3008
sg14
Vsouthamerica-east1-a
p3009
sg51
Vhttps://www.googleapis.com/compute/v1/projects/libcloud-221521/zones/southamerica-east1-a
p3010
ssg75
Nsg54
g57
sg273
Vsouthamerica
p3011
sg275
S'2310'
p3012
sbag2
(g260
g4
Ntp3013
Rp3014
(dp3015
g10
VUP
p3016
sg265
Nsg46
Vsouthamerica-east1-b
p3017
sg8
(dp3018
g268
Vhttps://www.googleapis.com/compute/v1/projects/libcloud-221521/regions/southamerica-east1
p3019
sg71
V1969-12-31T16:00:00.000-08:00
p3020
sg14
Vsouthamerica-east1-b
p3021
sg51
Vhttps://www.googleapis.com/compute/v1/projects/libcloud-221521/zones/southamerica-east1-b
p3022
ssg75
Nsg54
g57
sg273
Vsouthamerica
p3023
sg275
S'2311'
p3024
sbag2
(g260
g4
Ntp3025
Rp3026
(dp3027
g10
VUP
p3028
sg265
Nsg46
Vsouthamerica-east1-c
p3029
sg8
(dp3030
g268
Vhttps://www.googleapis.com/compute/v1/projects/libcloud-221521/regions/southamerica-east1
p3031
sg71
V1969-12-31T16:00:00.000-08:00
p3032
sg14
Vsouthamerica-east1-c
p3033
sg51
Vhttps://www.googleapis.com/compute/v1/projects/libcloud-221521/zones/southamerica-east1-c
p3034
ssg75
Nsg54
g57
sg273
Vsouthamerica
p3035
sg275
S'2312'
p3036
sbasg275
S'1310'
p3037
sbag2
(g64
g4
Ntp3038
Rp3039
(dp3040
g10
VUP
p3041
sg46
Vus-central1
p3042
sg8
(dp3043
g71
V1969-12-31T16:00:00.000-08:00
p3044
sg14
Vus-central1
p3045
sg51
Vhttps://www.googleapis.com/compute/v1/projects/libcloud-221521/regions/us-central1
p3046
ssg75
Nsg53
Nsg54
g57
sg76
(lp3047
(dp3048
Vusage
p3049
F0.0
sVmetric
p3050
VCPUS
p3051
sVlimit
p3052
F72.0
sa(dp3053
Vusage
p3054
F0.0
sVmetric
p3055
VDISKS_TOTAL_GB
p3056
sVlimit
p3057
F40960.0
sa(dp3058
Vusage
p3059
F0.0
sVmetric
p3060
VSTATIC_ADDRESSES
p3061
sVlimit
p3062
F21.0
sa(dp3063
Vusage
p3064
F0.0
sVmetric
p3065
VIN_USE_ADDRESSES
p3066
sVlimit
p3067
F69.0
sa(dp3068
Vusage
p3069
F0.0
sVmetric
p3070
VSSD_TOTAL_GB
p3071
sVlimit
p3072
F20480.0
sa(dp3073
Vusage
p3074
F0.0
sVmetric
p3075
VLOCAL_SSD_TOTAL_GB
p3076
sVlimit
p3077
F20000.0
sa(dp3078
Vusage
p3079
F0.0
sVmetric
p3080
VINSTANCE_GROUPS
p3081
sVlimit
p3082
F300.0
sa(dp3083
Vusage
p3084
F0.0
sVmetric
p3085
VINSTANCE_GROUP_MANAGERS
p3086
sVlimit
p3087
F150.0
sa(dp3088
Vusage
p3089
F0.0
sVmetric
p3090
VINSTANCES
p3091
sVlimit
p3092
F720.0
sa(dp3093
Vusage
p3094
F0.0
sVmetric
p3095
VAUTOSCALERS
p3096
sVlimit
p3097
F150.0
sa(dp3098
Vusage
p3099
F0.0
sVmetric
p3100
VREGIONAL_AUTOSCALERS
p3101
sVlimit
p3102
F100.0
sa(dp3103
Vusage
p3104
F0.0
sVmetric
p3105
VREGIONAL_INSTANCE_GROUP_MANAGERS
p3106
sVlimit
p3107
F100.0
sa(dp3108
Vusage
p3109
F0.0
sVmetric
p3110
VPREEMPTIBLE_CPUS
p3111
sVlimit
p3112
F0.0
sa(dp3113
Vusage
p3114
F0.0
sVmetric
p3115
VNVIDIA_K80_GPUS
p3116
sVlimit
p3117
F8.0
sa(dp3118
Vusage
p3119
F0.0
sVmetric
p3120
VCOMMITMENTS
p3121
sVlimit
p3122
F0.0
sa(dp3123
Vusage
p3124
F0.0
sVmetric
p3125
VINTERNAL_ADDRESSES
p3126
sVlimit
p3127
F200.0
sa(dp3128
Vusage
p3129
F0.0
sVmetric
p3130
VNVIDIA_P100_GPUS
p3131
sVlimit
p3132
F1.0
sa(dp3133
Vusage
p3134
F0.0
sVmetric
p3135
VPREEMPTIBLE_LOCAL_SSD_GB
p3136
sVlimit
p3137
F0.0
sa(dp3138
Vusage
p3139
F0.0
sVmetric
p3140
VPREEMPTIBLE_NVIDIA_K80_GPUS
p3141
sVlimit
p3142
F1.0
sa(dp3143
Vusage
p3144
F0.0
sVmetric
p3145
VPREEMPTIBLE_NVIDIA_P100_GPUS
p3146
sVlimit
p3147
F1.0
sa(dp3148
Vusage
p3149
F0.0
sVmetric
p3150
VNVIDIA_P100_VWS_GPUS
p3151
sVlimit
p3152
F1.0
sa(dp3153
Vusage
p3154
F0.0
sVmetric
p3155
VNVIDIA_V100_GPUS
p3156
sVlimit
p3157
F1.0
sa(dp3158
Vusage
p3159
F0.0
sVmetric
p3160
VNVIDIA_P4_GPUS
p3161
sVlimit
p3162
F1.0
sa(dp3163
Vusage
p3164
F0.0
sVmetric
p3165
VNVIDIA_P4_VWS_GPUS
p3166
sVlimit
p3167
F1.0
sa(dp3168
Vusage
p3169
F0.0
sVmetric
p3170
VPREEMPTIBLE_NVIDIA_V100_GPUS
p3171
sVlimit
p3172
F1.0
sa(dp3173
Vusage
p3174
F0.0
sVmetric
p3175
VPREEMPTIBLE_NVIDIA_P4_GPUS
p3176
sVlimit
p3177
F1.0
sa(dp3178
Vusage
p3179
F0.0
sVmetric
p3180
VPREEMPTIBLE_NVIDIA_P100_VWS_GPUS
p3181
sVlimit
p3182
F1.0
sa(dp3183
Vusage
p3184
F0.0
sVmetric
p3185
VPREEMPTIBLE_NVIDIA_P4_VWS_GPUS
p3186
sVlimit
p3187
F1.0
sa(dp3188
Vusage
p3189
F0.0
sVmetric
p3190
VINTERCONNECT_ATTACHMENTS_PER_REGION
p3191
sVlimit
p3192
F16.0
sa(dp3193
Vusage
p3194
F0.0
sVmetric
p3195
VINTERCONNECT_ATTACHMENTS_TOTAL_MBPS
p3196
sVlimit
p3197
F80000.0
sa(dp3198
Vusage
p3199
F0.0
sVmetric
p3200
VRESOURCE_POLICIES
p3201
sVlimit
p3202
F10.0
sa(dp3203
Vusage
p3204
F0.0
sVmetric
p3205
VIN_USE_BACKUP_SCHEDULES
p3206
sVlimit
p3207
F50.0
sa(dp3208
Vusage
p3209
F0.0
sVmetric
p3210
VNVIDIA_T4_GPUS
p3211
sVlimit
p3212
F1.0
sa(dp3213
Vusage
p3214
F0.0
sVmetric
p3215
VNVIDIA_T4_VWS_GPUS
p3216
sVlimit
p3217
F1.0
sa(dp3218
Vusage
p3219
F0.0
sVmetric
p3220
VPREEMPTIBLE_NVIDIA_T4_GPUS
p3221
sVlimit
p3222
F1.0
sa(dp3223
Vusage
p3224
F0.0
sVmetric
p3225
VPREEMPTIBLE_NVIDIA_T4_VWS_GPUS
p3226
sVlimit
p3227
F1.0
sasg258
(lp3228
g2
(g260
g4
Ntp3229
Rp3230
(dp3231
g10
VUP
p3232
sg265
Nsg46
Vus-central1-a
p3233
sg8
(dp3234
g268
Vhttps://www.googleapis.com/compute/v1/projects/libcloud-221521/regions/us-central1
p3235
sg71
V1969-12-31T16:00:00.000-08:00
p3236
sg14
Vus-central1-a
p3237
sg51
Vhttps://www.googleapis.com/compute/v1/projects/libcloud-221521/zones/us-central1-a
p3238
ssg75
Nsg54
g57
sg273
Vus
p3239
sg275
S'2000'
p3240
sbag2
(g260
g4
Ntp3241
Rp3242
(dp3243
g10
VUP
p3244
sg265
Nsg46
Vus-central1-b
p3245
sg8
(dp3246
g268
Vhttps://www.googleapis.com/compute/v1/projects/libcloud-221521/regions/us-central1
p3247
sg71
V1969-12-31T16:00:00.000-08:00
p3248
sg14
Vus-central1-b
p3249
sg51
Vhttps://www.googleapis.com/compute/v1/projects/libcloud-221521/zones/us-central1-b
p3250
ssg75
Nsg54
g57
sg273
Vus
p3251
sg275
S'2001'
p3252
sbag2
(g260
g4
Ntp3253
Rp3254
(dp3255
g10
VUP
p3256
sg265
Nsg46
Vus-central1-c
p3257
sg8
(dp3258
g268
Vhttps://www.googleapis.com/compute/v1/projects/libcloud-221521/regions/us-central1
p3259
sg71
V1969-12-31T16:00:00.000-08:00
p3260
sg14
Vus-central1-c
p3261
sg51
Vhttps://www.googleapis.com/compute/v1/projects/libcloud-221521/zones/us-central1-c
p3262
ssg75
Nsg54
g57
sg273
Vus
p3263
sg275
S'2002'
p3264
sbag2
(g260
g4
Ntp3265
Rp3266
(dp3267
g10
VUP
p3268
sg265
Nsg46
Vus-central1-f
p3269
sg8
(dp3270
g268
Vhttps://www.googleapis.com/compute/v1/projects/libcloud-221521/regions/us-central1
p3271
sg71
V1969-12-31T16:00:00.000-08:00
p3272
sg14
Vus-central1-f
p3273
sg51
Vhttps://www.googleapis.com/compute/v1/projects/libcloud-221521/zones/us-central1-f
p3274
ssg75
Nsg54
g57
sg273
Vus
p3275
sg275
S'2004'
p3276
sbasg275
S'1000'
p3277
sbag2
(g64
g4
Ntp3278
Rp3279
(dp3280
g10
VUP
p3281
sg46
Vus-east1
p3282
sg8
(dp3283
g71
V1969-12-31T16:00:00.000-08:00
p3284
sg14
Vus-east1
p3285
sg51
Vhttps://www.googleapis.com/compute/v1/projects/libcloud-221521/regions/us-east1
p3286
ssg75
Nsg53
Nsg54
g57
sg76
(lp3287
(dp3288
Vusage
p3289
F0.0
sVmetric
p3290
VCPUS
p3291
sVlimit
p3292
F72.0
sa(dp3293
Vusage
p3294
F0.0
sVmetric
p3295
VDISKS_TOTAL_GB
p3296
sVlimit
p3297
F40960.0
sa(dp3298
Vusage
p3299
F0.0
sVmetric
p3300
VSTATIC_ADDRESSES
p3301
sVlimit
p3302
F21.0
sa(dp3303
Vusage
p3304
F0.0
sVmetric
p3305
VIN_USE_ADDRESSES
p3306
sVlimit
p3307
F69.0
sa(dp3308
Vusage
p3309
F0.0
sVmetric
p3310
VSSD_TOTAL_GB
p3311
sVlimit
p3312
F20480.0
sa(dp3313
Vusage
p3314
F0.0
sVmetric
p3315
VLOCAL_SSD_TOTAL_GB
p3316
sVlimit
p3317
F20000.0
sa(dp3318
Vusage
p3319
F0.0
sVmetric
p3320
VINSTANCE_GROUPS
p3321
sVlimit
p3322
F300.0
sa(dp3323
Vusage
p3324
F0.0
sVmetric
p3325
VINSTANCE_GROUP_MANAGERS
p3326
sVlimit
p3327
F150.0
sa(dp3328
Vusage
p3329
F0.0
sVmetric
p3330
VINSTANCES
p3331
sVlimit
p3332
F720.0
sa(dp3333
Vusage
p3334
F0.0
sVmetric
p3335
VAUTOSCALERS
p3336
sVlimit
p3337
F150.0
sa(dp3338
Vusage
p3339
F0.0
sVmetric
p3340
VREGIONAL_AUTOSCALERS
p3341
sVlimit
p3342
F100.0
sa(dp3343
Vusage
p3344
F0.0
sVmetric
p3345
VREGIONAL_INSTANCE_GROUP_MANAGERS
p3346
sVlimit
p3347
F100.0
sa(dp3348
Vusage
p3349
F0.0
sVmetric
p3350
VPREEMPTIBLE_CPUS
p3351
sVlimit
p3352
F0.0
sa(dp3353
Vusage
p3354
F0.0
sVmetric
p3355
VNVIDIA_K80_GPUS
p3356
sVlimit
p3357
F8.0
sa(dp3358
Vusage
p3359
F0.0
sVmetric
p3360
VCOMMITMENTS
p3361
sVlimit
p3362
F0.0
sa(dp3363
Vusage
p3364
F0.0
sVmetric
p3365
VINTERNAL_ADDRESSES
p3366
sVlimit
p3367
F200.0
sa(dp3368
Vusage
p3369
F0.0
sVmetric
p3370
VNVIDIA_P100_GPUS
p3371
sVlimit
p3372
F1.0
sa(dp3373
Vusage
p3374
F0.0
sVmetric
p3375
VPREEMPTIBLE_LOCAL_SSD_GB
p3376
sVlimit
p3377
F0.0
sa(dp3378
Vusage
p3379
F0.0
sVmetric
p3380
VPREEMPTIBLE_NVIDIA_K80_GPUS
p3381
sVlimit
p3382
F1.0
sa(dp3383
Vusage
p3384
F0.0
sVmetric
p3385
VPREEMPTIBLE_NVIDIA_P100_GPUS
p3386
sVlimit
p3387
F1.0
sa(dp3388
Vusage
p3389
F0.0
sVmetric
p3390
VNVIDIA_P100_VWS_GPUS
p3391
sVlimit
p3392
F1.0
sa(dp3393
Vusage
p3394
F0.0
sVmetric
p3395
VNVIDIA_V100_GPUS
p3396
sVlimit
p3397
F1.0
sa(dp3398
Vusage
p3399
F0.0
sVmetric
p3400
VNVIDIA_P4_GPUS
p3401
sVlimit
p3402
F1.0
sa(dp3403
Vusage
p3404
F0.0
sVmetric
p3405
VNVIDIA_P4_VWS_GPUS
p3406
sVlimit
p3407
F1.0
sa(dp3408
Vusage
p3409
F0.0
sVmetric
p3410
VPREEMPTIBLE_NVIDIA_V100_GPUS
p3411
sVlimit
p3412
F1.0
sa(dp3413
Vusage
p3414
F0.0
sVmetric
p3415
VPREEMPTIBLE_NVIDIA_P4_GPUS
p3416
sVlimit
p3417
F1.0
sa(dp3418
Vusage
p3419
F0.0
sVmetric
p3420
VPREEMPTIBLE_NVIDIA_P100_VWS_GPUS
p3421
sVlimit
p3422
F1.0
sa(dp3423
Vusage
p3424
F0.0
sVmetric
p3425
VPREEMPTIBLE_NVIDIA_P4_VWS_GPUS
p3426
sVlimit
p3427
F1.0
sa(dp3428
Vusage
p3429
F0.0
sVmetric
p3430
VINTERCONNECT_ATTACHMENTS_PER_REGION
p3431
sVlimit
p3432
F16.0
sa(dp3433
Vusage
p3434
F0.0
sVmetric
p3435
VINTERCONNECT_ATTACHMENTS_TOTAL_MBPS
p3436
sVlimit
p3437
F80000.0
sa(dp3438
Vusage
p3439
F0.0
sVmetric
p3440
VRESOURCE_POLICIES
p3441
sVlimit
p3442
F10.0
sa(dp3443
Vusage
p3444
F0.0
sVmetric
p3445
VIN_USE_BACKUP_SCHEDULES
p3446
sVlimit
p3447
F50.0
sa(dp3448
Vusage
p3449
F0.0
sVmetric
p3450
VNVIDIA_T4_GPUS
p3451
sVlimit
p3452
F1.0
sa(dp3453
Vusage
p3454
F0.0
sVmetric
p3455
VNVIDIA_T4_VWS_GPUS
p3456
sVlimit
p3457
F1.0
sa(dp3458
Vusage
p3459
F0.0
sVmetric
p3460
VPREEMPTIBLE_NVIDIA_T4_GPUS
p3461
sVlimit
p3462
F1.0
sa(dp3463
Vusage
p3464
F0.0
sVmetric
p3465
VPREEMPTIBLE_NVIDIA_T4_VWS_GPUS
p3466
sVlimit
p3467
F1.0
sasg258
(lp3468
g2
(g260
g4
Ntp3469
Rp3470
(dp3471
g10
VUP
p3472
sg265
Nsg46
Vus-east1-b
p3473
sg8
(dp3474
g268
Vhttps://www.googleapis.com/compute/v1/projects/libcloud-221521/regions/us-east1
p3475
sg71
V1969-12-31T16:00:00.000-08:00
p3476
sg14
Vus-east1-b
p3477
sg51
Vhttps://www.googleapis.com/compute/v1/projects/libcloud-221521/zones/us-east1-b
p3478
ssg75
Nsg54
g57
sg273
Vus
p3479
sg275
S'2231'
p3480
sbag2
(g260
g4
Ntp3481
Rp3482
(dp3483
g10
VUP
p3484
sg265
Nsg46
Vus-east1-c
p3485
sg8
(dp3486
g268
Vhttps://www.googleapis.com/compute/v1/projects/libcloud-221521/regions/us-east1
p3487
sg71
V1969-12-31T16:00:00.000-08:00
p3488
sg14
Vus-east1-c
p3489
sg51
Vhttps://www.googleapis.com/compute/v1/projects/libcloud-221521/zones/us-east1-c
p3490
ssg75
Nsg54
g57
sg273
Vus
p3491
sg275
S'2233'
p3492
sbag2
(g260
g4
Ntp3493
Rp3494
(dp3495
g10
VUP
p3496
sg265
Nsg46
Vus-east1-d
p3497
sg8
(dp3498
g268
Vhttps://www.googleapis.com/compute/v1/projects/libcloud-221521/regions/us-east1
p3499
sg71
V1969-12-31T16:00:00.000-08:00
p3500
sg14
Vus-east1-d
p3501
sg51
Vhttps://www.googleapis.com/compute/v1/projects/libcloud-221521/zones/us-east1-d
p3502
ssg75
Nsg54
g57
sg273
Vus
p3503
sg275
S'2234'
p3504
sbasg275
S'1230'
p3505
sbag2
(g64
g4
Ntp3506
Rp3507
(dp3508
g10
VUP
p3509
sg46
Vus-east4
p3510
sg8
(dp3511
g71
V1969-12-31T16:00:00.000-08:00
p3512
sg14
Vus-east4
p3513
sg51
Vhttps://www.googleapis.com/compute/v1/projects/libcloud-221521/regions/us-east4
p3514
ssg75
Nsg53
Nsg54
g57
sg76
(lp3515
(dp3516
Vusage
p3517
F0.0
sVmetric
p3518
VCPUS
p3519
sVlimit
p3520
F72.0
sa(dp3521
Vusage
p3522
F0.0
sVmetric
p3523
VDISKS_TOTAL_GB
p3524
sVlimit
p3525
F40960.0
sa(dp3526
Vusage
p3527
F0.0
sVmetric
p3528
VSTATIC_ADDRESSES
p3529
sVlimit
p3530
F21.0
sa(dp3531
Vusage
p3532
F0.0
sVmetric
p3533
VIN_USE_ADDRESSES
p3534
sVlimit
p3535
F69.0
sa(dp3536
Vusage
p3537
F0.0
sVmetric
p3538
VSSD_TOTAL_GB
p3539
sVlimit
p3540
F20480.0
sa(dp3541
Vusage
p3542
F0.0
sVmetric
p3543
VLOCAL_SSD_TOTAL_GB
p3544
sVlimit
p3545
F20000.0
sa(dp3546
Vusage
p3547
F0.0
sVmetric
p3548
VINSTANCE_GROUPS
p3549
sVlimit
p3550
F300.0
sa(dp3551
Vusage
p3552
F0.0
sVmetric
p3553
VINSTANCE_GROUP_MANAGERS
p3554
sVlimit
p3555
F150.0
sa(dp3556
Vusage
p3557
F0.0
sVmetric
p3558
VINSTANCES
p3559
sVlimit
p3560
F720.0
sa(dp3561
Vusage
p3562
F0.0
sVmetric
p3563
VAUTOSCALERS
p3564
sVlimit
p3565
F150.0
sa(dp3566
Vusage
p3567
F0.0
sVmetric
p3568
VREGIONAL_AUTOSCALERS
p3569
sVlimit
p3570
F100.0
sa(dp3571
Vusage
p3572
F0.0
sVmetric
p3573
VREGIONAL_INSTANCE_GROUP_MANAGERS
p3574
sVlimit
p3575
F100.0
sa(dp3576
Vusage
p3577
F0.0
sVmetric
p3578
VPREEMPTIBLE_CPUS
p3579
sVlimit
p3580
F0.0
sa(dp3581
Vusage
p3582
F0.0
sVmetric
p3583
VNVIDIA_K80_GPUS
p3584
sVlimit
p3585
F8.0
sa(dp3586
Vusage
p3587
F0.0
sVmetric
p3588
VCOMMITMENTS
p3589
sVlimit
p3590
F0.0
sa(dp3591
Vusage
p3592
F0.0
sVmetric
p3593
VINTERNAL_ADDRESSES
p3594
sVlimit
p3595
F200.0
sa(dp3596
Vusage
p3597
F0.0
sVmetric
p3598
VNVIDIA_P100_GPUS
p3599
sVlimit
p3600
F1.0
sa(dp3601
Vusage
p3602
F0.0
sVmetric
p3603
VPREEMPTIBLE_LOCAL_SSD_GB
p3604
sVlimit
p3605
F0.0
sa(dp3606
Vusage
p3607
F0.0
sVmetric
p3608
VPREEMPTIBLE_NVIDIA_K80_GPUS
p3609
sVlimit
p3610
F1.0
sa(dp3611
Vusage
p3612
F0.0
sVmetric
p3613
VPREEMPTIBLE_NVIDIA_P100_GPUS
p3614
sVlimit
p3615
F1.0
sa(dp3616
Vusage
p3617
F0.0
sVmetric
p3618
VNVIDIA_P100_VWS_GPUS
p3619
sVlimit
p3620
F1.0
sa(dp3621
Vusage
p3622
F0.0
sVmetric
p3623
VNVIDIA_V100_GPUS
p3624
sVlimit
p3625
F1.0
sa(dp3626
Vusage
p3627
F0.0
sVmetric
p3628
VNVIDIA_P4_GPUS
p3629
sVlimit
p3630
F1.0
sa(dp3631
Vusage
p3632
F0.0
sVmetric
p3633
VNVIDIA_P4_VWS_GPUS
p3634
sVlimit
p3635
F1.0
sa(dp3636
Vusage
p3637
F0.0
sVmetric
p3638
VPREEMPTIBLE_NVIDIA_V100_GPUS
p3639
sVlimit
p3640
F1.0
sa(dp3641
Vusage
p3642
F0.0
sVmetric
p3643
VPREEMPTIBLE_NVIDIA_P4_GPUS
p3644
sVlimit
p3645
F1.0
sa(dp3646
Vusage
p3647
F0.0
sVmetric
p3648
VPREEMPTIBLE_NVIDIA_P100_VWS_GPUS
p3649
sVlimit
p3650
F1.0
sa(dp3651
Vusage
p3652
F0.0
sVmetric
p3653
VPREEMPTIBLE_NVIDIA_P4_VWS_GPUS
p3654
sVlimit
p3655
F1.0
sa(dp3656
Vusage
p3657
F0.0
sVmetric
p3658
VINTERCONNECT_ATTACHMENTS_PER_REGION
p3659
sVlimit
p3660
F16.0
sa(dp3661
Vusage
p3662
F0.0
sVmetric
p3663
VINTERCONNECT_ATTACHMENTS_TOTAL_MBPS
p3664
sVlimit
p3665
F80000.0
sa(dp3666
Vusage
p3667
F0.0
sVmetric
p3668
VRESOURCE_POLICIES
p3669
sVlimit
p3670
F10.0
sa(dp3671
Vusage
p3672
F0.0
sVmetric
p3673
VIN_USE_BACKUP_SCHEDULES
p3674
sVlimit
p3675
F50.0
sa(dp3676
Vusage
p3677
F0.0
sVmetric
p3678
VNVIDIA_T4_GPUS
p3679
sVlimit
p3680
F1.0
sa(dp3681
Vusage
p3682
F0.0
sVmetric
p3683
VNVIDIA_T4_VWS_GPUS
p3684
sVlimit
p3685
F1.0
sa(dp3686
Vusage
p3687
F0.0
sVmetric
p3688
VPREEMPTIBLE_NVIDIA_T4_GPUS
p3689
sVlimit
p3690
F1.0
sa(dp3691
Vusage
p3692
F0.0
sVmetric
p3693
VPREEMPTIBLE_NVIDIA_T4_VWS_GPUS
p3694
sVlimit
p3695
F1.0
sasg258
(lp3696
g2
(g260
g4
Ntp3697
Rp3698
(dp3699
g10
VUP
p3700
sg265
Nsg46
Vus-east4-a
p3701
sg8
(dp3702
g268
Vhttps://www.googleapis.com/compute/v1/projects/libcloud-221521/regions/us-east4
p3703
sg71
V1969-12-31T16:00:00.000-08:00
p3704
sg14
Vus-east4-a
p3705
sg51
Vhttps://www.googleapis.com/compute/v1/projects/libcloud-221521/zones/us-east4-a
p3706
ssg75
Nsg54
g57
sg273
Vus
p3707
sg275
S'2270'
p3708
sbag2
(g260
g4
Ntp3709
Rp3710
(dp3711
g10
VUP
p3712
sg265
Nsg46
Vus-east4-b
p3713
sg8
(dp3714
g268
Vhttps://www.googleapis.com/compute/v1/projects/libcloud-221521/regions/us-east4
p3715
sg71
V1969-12-31T16:00:00.000-08:00
p3716
sg14
Vus-east4-b
p3717
sg51
Vhttps://www.googleapis.com/compute/v1/projects/libcloud-221521/zones/us-east4-b
p3718
ssg75
Nsg54
g57
sg273
Vus
p3719
sg275
S'2271'
p3720
sbag2
(g260
g4
Ntp3721
Rp3722
(dp3723
g10
VUP
p3724
sg265
Nsg46
Vus-east4-c
p3725
sg8
(dp3726
g268
Vhttps://www.googleapis.com/compute/v1/projects/libcloud-221521/regions/us-east4
p3727
sg71
V1969-12-31T16:00:00.000-08:00
p3728
sg14
Vus-east4-c
p3729
sg51
Vhttps://www.googleapis.com/compute/v1/projects/libcloud-221521/zones/us-east4-c
p3730
ssg75
Nsg54
g57
sg273
Vus
p3731
sg275
S'2272'
p3732
sbasg275
S'1270'
p3733
sbag2
(g64
g4
Ntp3734
Rp3735
(dp3736
g10
VUP
p3737
sg46
Vus-west1
p3738
sg8
(dp3739
g71
V1969-12-31T16:00:00.000-08:00
p3740
sg14
Vus-west1
p3741
sg51
Vhttps://www.googleapis.com/compute/v1/projects/libcloud-221521/regions/us-west1
p3742
ssg75
Nsg53
Nsg54
g57
sg76
(lp3743
(dp3744
Vusage
p3745
F0.0
sVmetric
p3746
VCPUS
p3747
sVlimit
p3748
F72.0
sa(dp3749
Vusage
p3750
F0.0
sVmetric
p3751
VDISKS_TOTAL_GB
p3752
sVlimit
p3753
F40960.0
sa(dp3754
Vusage
p3755
F0.0
sVmetric
p3756
VSTATIC_ADDRESSES
p3757
sVlimit
p3758
F21.0
sa(dp3759
Vusage
p3760
F0.0
sVmetric
p3761
VIN_USE_ADDRESSES
p3762
sVlimit
p3763
F69.0
sa(dp3764
Vusage
p3765
F0.0
sVmetric
p3766
VSSD_TOTAL_GB
p3767
sVlimit
p3768
F20480.0
sa(dp3769
Vusage
p3770
F0.0
sVmetric
p3771
VLOCAL_SSD_TOTAL_GB
p3772
sVlimit
p3773
F20000.0
sa(dp3774
Vusage
p3775
F0.0
sVmetric
p3776
VINSTANCE_GROUPS
p3777
sVlimit
p3778
F300.0
sa(dp3779
Vusage
p3780
F0.0
sVmetric
p3781
VINSTANCE_GROUP_MANAGERS
p3782
sVlimit
p3783
F150.0
sa(dp3784
Vusage
p3785
F0.0
sVmetric
p3786
VINSTANCES
p3787
sVlimit
p3788
F720.0
sa(dp3789
Vusage
p3790
F0.0
sVmetric
p3791
VAUTOSCALERS
p3792
sVlimit
p3793
F150.0
sa(dp3794
Vusage
p3795
F0.0
sVmetric
p3796
VREGIONAL_AUTOSCALERS
p3797
sVlimit
p3798
F100.0
sa(dp3799
Vusage
p3800
F0.0
sVmetric
p3801
VREGIONAL_INSTANCE_GROUP_MANAGERS
p3802
sVlimit
p3803
F100.0
sa(dp3804
Vusage
p3805
F0.0
sVmetric
p3806
VPREEMPTIBLE_CPUS
p3807
sVlimit
p3808
F0.0
sa(dp3809
Vusage
p3810
F0.0
sVmetric
p3811
VNVIDIA_K80_GPUS
p3812
sVlimit
p3813
F8.0
sa(dp3814
Vusage
p3815
F0.0
sVmetric
p3816
VCOMMITMENTS
p3817
sVlimit
p3818
F0.0
sa(dp3819
Vusage
p3820
F0.0
sVmetric
p3821
VINTERNAL_ADDRESSES
p3822
sVlimit
p3823
F200.0
sa(dp3824
Vusage
p3825
F0.0
sVmetric
p3826
VNVIDIA_P100_GPUS
p3827
sVlimit
p3828
F1.0
sa(dp3829
Vusage
p3830
F0.0
sVmetric
p3831
VPREEMPTIBLE_LOCAL_SSD_GB
p3832
sVlimit
p3833
F0.0
sa(dp3834
Vusage
p3835
F0.0
sVmetric
p3836
VPREEMPTIBLE_NVIDIA_K80_GPUS
p3837
sVlimit
p3838
F1.0
sa(dp3839
Vusage
p3840
F0.0
sVmetric
p3841
VPREEMPTIBLE_NVIDIA_P100_GPUS
p3842
sVlimit
p3843
F1.0
sa(dp3844
Vusage
p3845
F0.0
sVmetric
p3846
VNVIDIA_P100_VWS_GPUS
p3847
sVlimit
p3848
F1.0
sa(dp3849
Vusage
p3850
F0.0
sVmetric
p3851
VNVIDIA_V100_GPUS
p3852
sVlimit
p3853
F1.0
sa(dp3854
Vusage
p3855
F0.0
sVmetric
p3856
VNVIDIA_P4_GPUS
p3857
sVlimit
p3858
F1.0
sa(dp3859
Vusage
p3860
F0.0
sVmetric
p3861
VNVIDIA_P4_VWS_GPUS
p3862
sVlimit
p3863
F1.0
sa(dp3864
Vusage
p3865
F0.0
sVmetric
p3866
VPREEMPTIBLE_NVIDIA_V100_GPUS
p3867
sVlimit
p3868
F1.0
sa(dp3869
Vusage
p3870
F0.0
sVmetric
p3871
VPREEMPTIBLE_NVIDIA_P4_GPUS
p3872
sVlimit
p3873
F1.0
sa(dp3874
Vusage
p3875
F0.0
sVmetric
p3876
VPREEMPTIBLE_NVIDIA_P100_VWS_GPUS
p3877
sVlimit
p3878
F1.0
sa(dp3879
Vusage
p3880
F0.0
sVmetric
p3881
VPREEMPTIBLE_NVIDIA_P4_VWS_GPUS
p3882
sVlimit
p3883
F1.0
sa(dp3884
Vusage
p3885
F0.0
sVmetric
p3886
VINTERCONNECT_ATTACHMENTS_PER_REGION
p3887
sVlimit
p3888
F16.0
sa(dp3889
Vusage
p3890
F0.0
sVmetric
p3891
VINTERCONNECT_ATTACHMENTS_TOTAL_MBPS
p3892
sVlimit
p3893
F80000.0
sa(dp3894
Vusage
p3895
F0.0
sVmetric
p3896
VRESOURCE_POLICIES
p3897
sVlimit
p3898
F10.0
sa(dp3899
Vusage
p3900
F0.0
sVmetric
p3901
VIN_USE_BACKUP_SCHEDULES
p3902
sVlimit
p3903
F50.0
sa(dp3904
Vusage
p3905
F0.0
sVmetric
p3906
VNVIDIA_T4_GPUS
p3907
sVlimit
p3908
F1.0
sa(dp3909
Vusage
p3910
F0.0
sVmetric
p3911
VNVIDIA_T4_VWS_GPUS
p3912
sVlimit
p3913
F1.0
sa(dp3914
Vusage
p3915
F0.0
sVmetric
p3916
VPREEMPTIBLE_NVIDIA_T4_GPUS
p3917
sVlimit
p3918
F1.0
sa(dp3919
Vusage
p3920
F0.0
sVmetric
p3921
VPREEMPTIBLE_NVIDIA_T4_VWS_GPUS
p3922
sVlimit
p3923
F1.0
sasg258
(lp3924
g2
(g260
g4
Ntp3925
Rp3926
(dp3927
g10
VUP
p3928
sg265
Nsg46
Vus-west1-a
p3929
sg8
(dp3930
g268
Vhttps://www.googleapis.com/compute/v1/projects/libcloud-221521/regions/us-west1
p3931
sg71
V1969-12-31T16:00:00.000-08:00
p3932
sg14
Vus-west1-a
p3933
sg51
Vhttps://www.googleapis.com/compute/v1/projects/libcloud-221521/zones/us-west1-a
p3934
ssg75
Nsg54
g57
sg273
Vus
p3935
sg275
S'2210'
p3936
sbag2
(g260
g4
Ntp3937
Rp3938
(dp3939
g10
VUP
p3940
sg265
Nsg46
Vus-west1-b
p3941
sg8
(dp3942
g268
Vhttps://www.googleapis.com/compute/v1/projects/libcloud-221521/regions/us-west1
p3943
sg71
V1969-12-31T16:00:00.000-08:00
p3944
sg14
Vus-west1-b
p3945
sg51
Vhttps://www.googleapis.com/compute/v1/projects/libcloud-221521/zones/us-west1-b
p3946
ssg75
Nsg54
g57
sg273
Vus
p3947
sg275
S'2211'
p3948
sbag2
(g260
g4
Ntp3949
Rp3950
(dp3951
g10
VUP
p3952
sg265
Nsg46
Vus-west1-c
p3953
sg8
(dp3954
g268
Vhttps://www.googleapis.com/compute/v1/projects/libcloud-221521/regions/us-west1
p3955
sg71
V1969-12-31T16:00:00.000-08:00
p3956
sg14
Vus-west1-c
p3957
sg51
Vhttps://www.googleapis.com/compute/v1/projects/libcloud-221521/zones/us-west1-c
p3958
ssg75
Nsg54
g57
sg273
Vus
p3959
sg275
S'2212'
p3960
sbasg275
S'1210'
p3961
sbag2
(g64
g4
Ntp3962
Rp3963
(dp3964
g10
VUP
p3965
sg46
Vus-west2
p3966
sg8
(dp3967
g71
V1969-12-31T16:00:00.000-08:00
p3968
sg14
Vus-west2
p3969
sg51
Vhttps://www.googleapis.com/compute/v1/projects/libcloud-221521/regions/us-west2
p3970
ssg75
Nsg53
Nsg54
g57
sg76
(lp3971
(dp3972
Vusage
p3973
F0.0
sVmetric
p3974
VCPUS
p3975
sVlimit
p3976
F8.0
sa(dp3977
Vusage
p3978
F0.0
sVmetric
p3979
VDISKS_TOTAL_GB
p3980
sVlimit
p3981
F2048.0
sa(dp3982
Vusage
p3983
F0.0
sVmetric
p3984
VSTATIC_ADDRESSES
p3985
sVlimit
p3986
F1.0
sa(dp3987
Vusage
p3988
F0.0
sVmetric
p3989
VIN_USE_ADDRESSES
p3990
sVlimit
p3991
F8.0
sa(dp3992
Vusage
p3993
F0.0
sVmetric
p3994
VSSD_TOTAL_GB
p3995
sVlimit
p3996
F100.0
sa(dp3997
Vusage
p3998
F0.0
sVmetric
p3999
VLOCAL_SSD_TOTAL_GB
p4000
sVlimit
p4001
F1500.0
sa(dp4002
Vusage
p4003
F0.0
sVmetric
p4004
VINSTANCE_GROUPS
p4005
sVlimit
p4006
F100.0
sa(dp4007
Vusage
p4008
F0.0
sVmetric
p4009
VINSTANCE_GROUP_MANAGERS
p4010
sVlimit
p4011
F50.0
sa(dp4012
Vusage
p4013
F0.0
sVmetric
p4014
VINSTANCES
p4015
sVlimit
p4016
F80.0
sa(dp4017
Vusage
p4018
F0.0
sVmetric
p4019
VAUTOSCALERS
p4020
sVlimit
p4021
F50.0
sa(dp4022
Vusage
p4023
F0.0
sVmetric
p4024
VREGIONAL_AUTOSCALERS
p4025
sVlimit
p4026
F20.0
sa(dp4027
Vusage
p4028
F0.0
sVmetric
p4029
VREGIONAL_INSTANCE_GROUP_MANAGERS
p4030
sVlimit
p4031
F20.0
sa(dp4032
Vusage
p4033
F0.0
sVmetric
p4034
VPREEMPTIBLE_CPUS
p4035
sVlimit
p4036
F0.0
sa(dp4037
Vusage
p4038
F0.0
sVmetric
p4039
VNVIDIA_K80_GPUS
p4040
sVlimit
p4041
F1.0
sa(dp4042
Vusage
p4043
F0.0
sVmetric
p4044
VCOMMITMENTS
p4045
sVlimit
p4046
F0.0
sa(dp4047
Vusage
p4048
F0.0
sVmetric
p4049
VINTERNAL_ADDRESSES
p4050
sVlimit
p4051
F200.0
sa(dp4052
Vusage
p4053
F0.0
sVmetric
p4054
VNVIDIA_P100_GPUS
p4055
sVlimit
p4056
F1.0
sa(dp4057
Vusage
p4058
F0.0
sVmetric
p4059
VPREEMPTIBLE_LOCAL_SSD_GB
p4060
sVlimit
p4061
F0.0
sa(dp4062
Vusage
p4063
F0.0
sVmetric
p4064
VPREEMPTIBLE_NVIDIA_K80_GPUS
p4065
sVlimit
p4066
F1.0
sa(dp4067
Vusage
p4068
F0.0
sVmetric
p4069
VPREEMPTIBLE_NVIDIA_P100_GPUS
p4070
sVlimit
p4071
F1.0
sa(dp4072
Vusage
p4073
F0.0
sVmetric
p4074
VNVIDIA_P100_VWS_GPUS
p4075
sVlimit
p4076
F1.0
sa(dp4077
Vusage
p4078
F0.0
sVmetric
p4079
VNVIDIA_V100_GPUS
p4080
sVlimit
p4081
F1.0
sa(dp4082
Vusage
p4083
F0.0
sVmetric
p4084
VNVIDIA_P4_GPUS
p4085
sVlimit
p4086
F1.0
sa(dp4087
Vusage
p4088
F0.0
sVmetric
p4089
VNVIDIA_P4_VWS_GPUS
p4090
sVlimit
p4091
F1.0
sa(dp4092
Vusage
p4093
F0.0
sVmetric
p4094
VPREEMPTIBLE_NVIDIA_V100_GPUS
p4095
sVlimit
p4096
F1.0
sa(dp4097
Vusage
p4098
F0.0
sVmetric
p4099
VPREEMPTIBLE_NVIDIA_P4_GPUS
p4100
sVlimit
p4101
F1.0
sa(dp4102
Vusage
p4103
F0.0
sVmetric
p4104
VPREEMPTIBLE_NVIDIA_P100_VWS_GPUS
p4105
sVlimit
p4106
F1.0
sa(dp4107
Vusage
p4108
F0.0
sVmetric
p4109
VPREEMPTIBLE_NVIDIA_P4_VWS_GPUS
p4110
sVlimit
p4111
F1.0
sa(dp4112
Vusage
p4113
F0.0
sVmetric
p4114
VINTERCONNECT_ATTACHMENTS_PER_REGION
p4115
sVlimit
p4116
F16.0
sa(dp4117
Vusage
p4118
F0.0
sVmetric
p4119
VINTERCONNECT_ATTACHMENTS_TOTAL_MBPS
p4120
sVlimit
p4121
F80000.0
sa(dp4122
Vusage
p4123
F0.0
sVmetric
p4124
VRESOURCE_POLICIES
p4125
sVlimit
p4126
F5.0
sa(dp4127
Vusage
p4128
F0.0
sVmetric
p4129
VIN_USE_BACKUP_SCHEDULES
p4130
sVlimit
p4131
F20.0
sa(dp4132
Vusage
p4133
F0.0
sVmetric
p4134
VNVIDIA_T4_GPUS
p4135
sVlimit
p4136
F1.0
sa(dp4137
Vusage
p4138
F0.0
sVmetric
p4139
VNVIDIA_T4_VWS_GPUS
p4140
sVlimit
p4141
F1.0
sa(dp4142
Vusage
p4143
F0.0
sVmetric
p4144
VPREEMPTIBLE_NVIDIA_T4_GPUS
p4145
sVlimit
p4146
F1.0
sa(dp4147
Vusage
p4148
F0.0
sVmetric
p4149
VPREEMPTIBLE_NVIDIA_T4_VWS_GPUS
p4150
sVlimit
p4151
F1.0
sasg258
(lp4152
g2
(g260
g4
Ntp4153
Rp4154
(dp4155
g10
VUP
p4156
sg265
Nsg46
Vus-west2-c
p4157
sg8
(dp4158
g268
Vhttps://www.googleapis.com/compute/v1/projects/libcloud-221521/regions/us-west2
p4159
sg71
V1969-12-31T16:00:00.000-08:00
p4160
sg14
Vus-west2-c
p4161
sg51
Vhttps://www.googleapis.com/compute/v1/projects/libcloud-221521/zones/us-west2-c
p4162
ssg75
Nsg54
g57
sg273
Vus
p4163
sg275
S'2360'
p4164
sbag2
(g260
g4
Ntp4165
Rp4166
(dp4167
g10
VUP
p4168
sg265
Nsg46
Vus-west2-b
p4169
sg8
(dp4170
g268
Vhttps://www.googleapis.com/compute/v1/projects/libcloud-221521/regions/us-west2
p4171
sg71
V1969-12-31T16:00:00.000-08:00
p4172
sg14
Vus-west2-b
p4173
sg51
Vhttps://www.googleapis.com/compute/v1/projects/libcloud-221521/zones/us-west2-b
p4174
ssg75
Nsg54
g57
sg273
Vus
p4175
sg275
S'2361'
p4176
sbag2
(g260
g4
Ntp4177
Rp4178
(dp4179
g10
VUP
p4180
sg265
Nsg46
Vus-west2-a
p4181
sg8
(dp4182
g268
Vhttps://www.googleapis.com/compute/v1/projects/libcloud-221521/regions/us-west2
p4183
sg71
V1969-12-31T16:00:00.000-08:00
p4184
sg14
Vus-west2-a
p4185
sg51
Vhttps://www.googleapis.com/compute/v1/projects/libcloud-221521/zones/us-west2-a
p4186
ssg75
Nsg54
g57
sg273
Vus
p4187
sg275
S'2362'
p4188
sbasg275
S'1360'
p4189
sbasS'secure'
p4190
I01
sS'zone'
p4191
NsS'_ex_volume_dict'
p4192
(dp4193
sS'zone_list'
p4194
(lp4195
g3470
ag3482
ag3494
ag3722
ag3710
ag3698
ag3254
ag3230
ag3266
ag3242
ag3938
ag3950
ag3926
ag2570
ag2558
ag2546
ag1862
ag1886
ag1874
ag2342
ag2318
ag2330
ag2114
ag2102
ag2090
ag278
ag262
ag290
ag1190
ag1178
ag1202
ag734
ag746
ag722
ag974
ag950
ag962
ag1430
ag1406
ag1418
ag3014
ag3026
ag3002
ag518
ag506
ag494
ag1658
ag1634
ag1646
ag2774
ag2786
ag2798
ag4178
ag4166
ag4154
asg268
NsS'connection'
p4196
g2
(clibcloud.compute.drivers.gce
GCEConnection
p4197
g4
Ntp4198
Rp4199
(dp4200
S'key'
p4201
S'sjL9_2opO2s3wq9rogiLWnl-'
p4202
sS'context'
p4203
(dp4204
sS'user_id'
p4205
S'56940108935-d7fbj9uabjser872dfs5hh6o9smfoodm.apps.googleusercontent.com'
p4206
sg4190
I1
sS'data'
p4207
NsS'oauth2_credential'
p4208
g2
(clibcloud.common.google
GoogleOAuth2Credential
p4209
g4
Ntp4210
Rp4211
(dp4212
g59
g60
sg61
(lp4213
S'https://www.googleapis.com/auth/compute'
p4214
aS'https://www.googleapis.com/auth/devstorage.full_control'
p4215
aS'https://www.googleapis.com/auth/ndev.clouddns.readwrite'
p4216
asg4205
g4206
sS'oauth2_conn'
p4217
g2
(clibcloud.common.google
GoogleInstalledAppAuthConnection
p4218
g4
Ntp4219
Rp4220
(dp4221
g4201
g4202
sg61
S'https://www.googleapis.com/auth/compute https://www.googleapis.com/auth/devstorage.full_control https://www.googleapis.com/auth/ndev.clouddns.readwrite'
p4222
sS'proxy_url'
p4223
Nsg4205
g4206
sg4190
I1
sS'login_hint'
p4224
NsS'timeout'
p4225
NsS'backoff'
p4226
NsS'redirect_uri'
p4227
S'urn:ietf:wg:oauth:2.0:oob'
p4228
sg4203
(dp4229
sS'retry_delay'
p4230
NsS'ua'
p4231
(lp4232
sS'port'
p4233
I443
sS'request_path'
p4234
S''
p4235
sbsS'token'
p4236
(dp4237
Vaccess_token
p4238
Vya29.Gl1jBng_ftQDnLLdswoE7FbCh2DVH9E1dL7hgNDGiaXDXkb1Srnooy7ssnLQk3NUtMyDqDadMJxcIpFOOcY1QdBT9U27g4Wvs3P_bHAv3ItqN8yJjFmqJ0p9aWrXD8Q
p4239
sVexpires_in
p4240
I3600
sVtoken_type
p4241
VBearer
p4242
sVexpire_time
p4243
V2018-11-29T18:58:17Z
p4244
sVscope
p4245
Vhttps://www.googleapis.com/auth/devstorage.full_control https://www.googleapis.com/auth/compute https://www.googleapis.com/auth/ndev.clouddns.readwrite
p4246
sVrefresh_token
p4247
V1/0Sk0rz6oamYoqOUhHWsh4f2zJRxAf9PtDiJ4asLAVhA
p4248
ssg4201
g4202
sS'credential_file'
p4249
S'~/.google_libcloud_auth.libcloud-221521'
p4250
sbsg4223
Nsg54
g57
sg4226
NsS'method'
p4251
S'GET'
p4252
sg4196
g2
(clibcloud.http
LibcloudConnection
p4253
g4
Ntp4254
Rp4255
(dp4256
S'verify'
p4257
I01
sS'host'
p4258
S'https://www.googleapis.com'
p4259
sS'session'
p4260
g2
(crequests.sessions
Session
p4261
g4
Ntp4262
Rp4263
(dp4264
S'cookies'
p4265
g2
(crequests.cookies
RequestsCookieJar
p4266
g4
Ntp4267
Rp4268
(dp4269
S'_now'
p4270
I1543515389
sS'_policy'
p4271
(icookielib
DefaultCookiePolicy
p4272
(dp4273
S'strict_rfc2965_unverifiable'
p4274
I01
sS'strict_ns_domain'
p4275
I0
sS'_allowed_domains'
p4276
NsS'rfc2109_as_netscape'
p4277
NsS'rfc2965'
p4278
I00
sS'strict_domain'
p4279
I00
sg4270
I1543515389
sS'strict_ns_set_path'
p4280
I00
sS'strict_ns_unverifiable'
p4281
I00
sS'strict_ns_set_initial_dollar'
p4282
I00
sS'hide_cookie2'
p4283
I00
sS'_blocked_domains'
p4284
(tsS'netscape'
p4285
I01
sbsS'_cookies'
p4286
(dp4287
sbsS'stream'
p4288
I00
sS'hooks'
p4289
(dp4290
S'response'
p4291
(lp4292
ssS'auth'
p4293
NsS'trust_env'
p4294
I01
sS'headers'
p4295
g2
(crequests.structures
CaseInsensitiveDict
p4296
g4
Ntp4297
Rp4298
(dp4299
S'_store'
p4300
ccollections
OrderedDict
p4301
((lp4302
(lp4303
S'connection'
p4304
a(S'Connection'
p4305
S'keep-alive'
p4306
tp4307
aa(lp4308
S'accept-encoding'
p4309
a(S'Accept-Encoding'
p4310
S'gzip, deflate'
p4311
tp4312
aa(lp4313
S'accept'
p4314
a(S'Accept'
p4315
S'*/*'
p4316
tp4317
aa(lp4318
S'user-agent'
p4319
a(S'User-Agent'
p4320
S'python-requests/2.20.1'
p4321
tp4322
aatp4323
Rp4324
sbsS'cert'
p4325
NsS'params'
p4326
(dp4327
sS'prefetch'
p4328
Nsg4257
I01
sS'proxies'
p4329
(dp4330
sS'adapters'
p4331
g4301
((lp4332
(lp4333
S'https://'
p4334
ag2
(crequests.adapters
HTTPAdapter
p4335
g4
Ntp4336
Rp4337
(dp4338
S'_pool_block'
p4339
I00
sS'_pool_maxsize'
p4340
I10
sS'max_retries'
p4341
g2
(curllib3.util.retry
Retry
p4342
g4
Ntp4343
Rp4344
(dp4345
g10
NsS'redirect'
p4346
NsS'remove_headers_on_redirect'
p4347
c__builtin__
frozenset
p4348
((lp4349
S'Authorization'
p4350
atp4351
Rp4352
sS'read'
p4353
I00
sS'backoff_factor'
p4354
I0
sS'respect_retry_after_header'
p4355
I01
sS'history'
p4356
(tsS'raise_on_status'
p4357
I01
sS'connect'
p4358
NsS'status_forcelist'
p4359
c__builtin__
set
p4360
((lp4361
tp4362
Rp4363
sS'total'
p4364
I0
sS'raise_on_redirect'
p4365
I01
sS'method_whitelist'
p4366
g4348
((lp4367
S'HEAD'
p4368
aS'TRACE'
p4369
ag4252
aS'PUT'
p4370
aS'OPTIONS'
p4371
aS'DELETE'
p4372
atp4373
Rp4374
sbsS'config'
p4375
(dp4376
sS'_pool_connections'
p4377
I10
sbaa(lp4378
S'http://'
p4379
ag2
(g4335
g4
Ntp4380
Rp4381
(dp4382
g4339
I00
sg4340
I10
sg4341
g2
(g4342
g4
Ntp4383
Rp4384
(dp4385
g10
Nsg4346
Nsg4347
g4352
sg4353
I00
sg4354
I0
sg4355
I01
sg4356
(tsg4357
I01
sg4358
Nsg4359
g4360
((lp4386
tp4387
Rp4388
sg4364
I0
sg4365
I01
sg4366
g4374
sbsg4375
(dp4389
sg4377
I10
sbaatp4390
Rp4391
sS'max_redirects'
p4392
I30
sbsg4291
g2
(crequests.models
Response
p4393
g4
Ntp4394
Rp4395
(dp4396
g4265
g2
(g4266
g4
Ntp4397
Rp4398
(dp4399
g4270
I1543515389
sg4271
(icookielib
DefaultCookiePolicy
p4400
(dp4401
g4274
I01
sg4275
I0
sg4276
Nsg4277
Nsg4278
I00
sg4279
I00
sg4270
I1543515389
sg4280
I00
sg4281
I00
sg4282
I00
sg4283
I00
sg4284
(tsg4285
I01
sbsg4286
(dp4402
sbsS'_content'
p4403
S'{\n "kind": "compute#license",\n "name": "sql-server-2014-standard",\n "chargesUseFee": true,\n "id": "3705777654507911764",\n "licenseCode": "1000215",\n "creationTimestamp": "2016-05-02T14:35:54.000-07:00",\n "description": "SQL Server 2014 Standard",\n "transferable": true,\n "selfLink": "https://www.googleapis.com/compute/v1/projects/windows-sql-cloud/global/licenses/sql-server-2014-standard"\n}\n'
p4404
sS'encoding'
p4405
S'UTF-8'
p4406
sS'url'
p4407
Vhttps://www.googleapis.com/compute/v1/projects/windows-sql-cloud/global/licenses/sql-server-2014-standard
p4408
sS'status_code'
p4409
I200
sS'request'
p4410
g2
(crequests.models
PreparedRequest
p4411
g4
Ntp4412
Rp4413
(dp4414
S'body'
p4415
Nsg4407
S'https://www.googleapis.com/compute/v1/projects/windows-sql-cloud/global/licenses/sql-server-2014-standard'
p4416
sg4289
(dp4417
g4291
(lp4418
ssg4295
g2
(g4296
g4
Ntp4419
Rp4420
(dp4421
g4300
g4301
((lp4422
(lp4423
S'connection'
p4424
a(g4305
g4306
tp4425
aa(lp4426
S'accept-encoding'
p4427
a(S'Accept-Encoding'
p4428
S'gzip,deflate'
p4429
tp4430
aa(lp4431
S'accept'
p4432
a(g4315
g4316
tp4433
aa(lp4434
S'user-agent'
p4435
a(S'User-Agent'
p4436
S'libcloud/2.4.0 (Google Compute Engine) (Python 2.7.10/darwin)'
p4437
tp4438
aa(lp4439
S'host'
p4440
a(S'Host'
p4441
S'www.googleapis.com'
p4442
tp4443
aa(lp4444
S'content-type'
p4445
a(S'Content-Type'
p4446
S'application/json'
p4447
tp4448
aa(lp4449
S'authorization'
p4450
a(g4350
VBearer ya29.Gl1jBng_ftQDnLLdswoE7FbCh2DVH9E1dL7hgNDGiaXDXkb1Srnooy7ssnLQk3NUtMyDqDadMJxcIpFOOcY1QdBT9U27g4Wvs3P_bHAv3ItqN8yJjFmqJ0p9aWrXD8Q
p4451
tp4452
aatp4453
Rp4454
sbsS'_body_position'
p4455
Nsg4286
g2
(g4266
g4
Ntp4456
Rp4457
(dp4458
g4270
I1543515389
sg4271
(icookielib
DefaultCookiePolicy
p4459
(dp4460
g4274
I01
sg4275
I0
sg4276
Nsg4277
Nsg4278
I00
sg4279
I00
sg4270
I1543515389
sg4280
I00
sg4281
I00
sg4282
I00
sg4283
I00
sg4284
(tsg4285
I01
sbsg4286
(dp4461
sbsg4251
S'GET'
p4462
sbsS'elapsed'
p4463
cdatetime
timedelta
p4464
(I0
I0
I211491
tp4465
Rp4466
sg4295
g2
(g4296
g4
Ntp4467
Rp4468
(dp4469
g4300
g4301
((lp4470
(lp4471
S'expires'
p4472
a(S'Expires'
p4473
S'Thu, 29 Nov 2018 18:16:29 GMT'
p4474
tp4475
aa(lp4476
S'date'
p4477
a(S'Date'
p4478
S'Thu, 29 Nov 2018 18:16:29 GMT'
p4479
tp4480
aa(lp4481
S'cache-control'
p4482
a(S'Cache-Control'
p4483
S'private, max-age=0, must-revalidate, no-transform'
p4484
tp4485
aa(lp4486
S'etag'
p4487
a(S'ETag'
p4488
S'"HAxevGotpBrzktIFjna2piEZj40=/EbmLQTf66Z_oopUvbGNEEokjvuE="'
p4489
tp4490
aa(lp4491
S'vary'
p4492
a(S'Vary'
p4493
S'Origin, X-Origin'
p4494
tp4495
aa(lp4496
S'content-type'
p4497
a(S'Content-Type'
p4498
S'application/json; charset=UTF-8'
p4499
tp4500
aa(lp4501
S'content-encoding'
p4502
a(S'Content-Encoding'
p4503
S'gzip'
p4504
tp4505
aa(lp4506
S'x-content-type-options'
p4507
a(S'X-Content-Type-Options'
p4508
S'nosniff'
p4509
tp4510
aa(lp4511
S'x-frame-options'
p4512
a(S'X-Frame-Options'
p4513
S'SAMEORIGIN'
p4514
tp4515
aa(lp4516
S'x-xss-protection'
p4517
a(S'X-XSS-Protection'
p4518
S'1; mode=block'
p4519
tp4520
aa(lp4521
S'server'
p4522
a(S'Server'
p4523
S'GSE'
p4524
tp4525
aa(lp4526
S'alt-svc'
p4527
a(S'Alt-Svc'
p4528
S'quic=":443"; ma=2592000; v="44,43,39,35"'
p4529
tp4530
aa(lp4531
S'transfer-encoding'
p4532
a(S'Transfer-Encoding'
p4533
S'chunked'
p4534
tp4535
aatp4536
Rp4537
sbsS'reason'
p4538
S'OK'
p4539
sg4356
(lp4540
sbsS'ca_cert'
p4541
S'/Users/bcnickerson/PycharmProjects/multi-cloud2/venv/lib/python2.7/site-packages/certifi/cacert.pem'
p4542
sbsg4225
I180
sS'action'
p4543
V/compute/v1/projects/windows-sql-cloud/global/licenses/sql-server-2014-standard
p4544
sg4230
NsS'gce_params'
p4545
Nsg4231
(lp4546
S'Python 2.7.10/darwin'
p4547
asg4233
I443
sg4234
S'/compute/v1/projects/libcloud-221521'
p4548
sbsS'base_path'
p4549
S'/compute/v1/projects/libcloud-221521'
p4550
sS'project'
p4551
S'libcloud-221521'
p4552
sS'secret'
p4553
g4202
sS'zone_dict'
p4554
(dp4555
g3005
g3002
sg3029
g3026
sg3017
g3014
sg3929
g3926
sg3941
g3938
sg3953
g3950
sg3725
g3722
sg3713
g3710
sg3701
g3698
sg2549
g2546
sg2561
g2558
sg2573
g2570
sg2777
g2774
sg2801
g2798
sg2789
g2786
sg1649
g1646
sg1181
g1178
sg1193
g1190
sg1205
g1202
sg2333
g2330
sg2345
g2342
sg2321
g2318
sg2093
g2090
sg2117
g2114
sg2105
g2102
sg1409
g1406
sg3269
g3266
sg1421
g1418
sg3257
g3254
sg3245
g3242
sg3233
g3230
sg953
g950
sg737
g734
sg749
g746
sg725
g722
sg281
g278
sg293
g290
sg266
g262
sg4157
g4154
sg521
g518
sg1661
g1658
sg497
g494
sg509
g506
sg4181
g4178
sg1433
g1430
sg3473
g3470
sg3485
g3482
sg1889
g1886
sg1637
g1634
sg1865
g1862
sg1877
g1874
sg3497
g3494
sg965
g962
sg977
g974
sg4169
g4166
ssg4201
g4206
sg4249
g4250
sS'region_dict'
p4556
(dp4557
g1218
g1215
sg1674
g1671
sg306
g303
sg2130
g2127
sg3510
g3507
sg69
g66
sg2358
g2355
sg3282
g3279
sg1446
g1443
sg1902
g1899
sg3042
g3039
sg762
g759
sg3738
g3735
sg3966
g3963
sg2586
g2583
sg990
g987
sg534
g531
sg2814
g2811
ssS'api_version'
p4558
Nsbsg4551
Vwindows-sql-cloud
p4559
sS'charges_use_fee'
p4560
I01
sg275
g47
sbag2
(g42
g4
Ntp4561
Rp4562
(dp4563
g46
Vwindows-server-2012-r2-dc
p4564
sg8
(dp4565
g49
Vcompute#license
p4566
sg51
Vhttps://www.googleapis.com/compute/v1/projects/windows-cloud/global/licenses/windows-server-2012-r2-dc
p4567
ssg53
Nsg54
g57
sg4551
Vwindows-cloud
p4568
sg4560
I01
sg275
g4564
sbasg71
V2018-11-15T20:03:59.828-08:00
p4569
sg51
Vhttps://www.googleapis.com/compute/v1/projects/windows-sql-cloud/global/images/sql-2014-standard-windows-2012-r2-dc-v20181113
p4570
sS'sourceType'
p4571
VRAW
p4572
ssg54
g57
sg275
S'2496640220540436288'
p4573
sg53
Nsg46
Vsql-2014-standard-windows-2012-r2-dc-v20181113
p4574
sbsS'unix'
p4575
g2
(g3
g4
Ntp4576
Rp4577
(dp4578
g8
(dp4579
g10
VREADY
p4580
sg12
Vubuntu-1404-lts
p4581
sg14
VCanonical, Ubuntu, 14.04 LTS, amd64 trusty image built on 2018-11-14
p4582
sg16
(dp4583
VcontainerType
p4584
VTAR
p4585
sVsource
p4586
g21
ssg22
V42WmSpB8rSM=
p4587
sg24
Nsg25
V7370915328
p4588
sg27
(lp4589
(dp4590
Vtype
p4591
VVIRTIO_SCSI_MULTIQUEUE
p4592
sasg38
V10
p4593
sg40
(lp4594
g2
(g42
g4
Ntp4595
Rp4596
(dp4597
g46
Vubuntu-1404-trusty
p4598
sg8
(dp4599
g49
Vcompute#license
p4600
sg51
Vhttps://www.googleapis.com/compute/v1/projects/ubuntu-os-cloud/global/licenses/ubuntu-1404-trusty
p4601
ssg53
Nsg54
g57
sg4551
Vubuntu-os-cloud
p4602
sg4560
I01
sg275
g4598
sbasg71
V2018-11-15T01:14:55.475-08:00
p4603
sg51
Vhttps://www.googleapis.com/compute/v1/projects/ubuntu-os-cloud/global/images/ubuntu-1404-trusty-v20181114
p4604
sg4571
VRAW
p4605
ssg54
g57
sg275
S'6378320143839168480'
p4606
sg53
Nsg46
Vubuntu-1404-trusty-v20181114
p4607
sbsS'rhel'
p4608
g2
(g3
g4
Ntp4609
Rp4610
(dp4611
g8
(dp4612
g10
VREADY
p4613
sg12
Vrhel-6
p4614
sg14
VRed Hat, Red Hat Enterprise Linux, 6, x86_64 built on 20181113
p4615
sg16
(dp4616
VcontainerType
p4617
VTAR
p4618
sVsource
p4619
g21
ssg22
V42WmSpB8rSM=
p4620
sg24
Nsg25
V17118249984
p4621
sg38
V10
p4622
sg40
(lp4623
g2
(g42
g4
Ntp4624
Rp4625
(dp4626
g46
Vrhel-6-server
p4627
sg8
(dp4628
g49
Vcompute#license
p4629
sg51
Vhttps://www.googleapis.com/compute/v1/projects/rhel-cloud/global/licenses/rhel-6-server
p4630
ssg53
Nsg54
g57
sg4551
Vrhel-cloud
p4631
sg4560
I01
sg275
g4627
sbasg71
V2018-11-14T10:49:04.485-08:00
p4632
sg51
Vhttps://www.googleapis.com/compute/v1/projects/rhel-cloud/global/images/rhel-6-v20181113
p4633
sg4571
VRAW
p4634
ssg54
g57
sg275
S'1939708143365902576'
p4635
sg53
Nsg46
Vrhel-6-v20181113
p4636
sbsS'linux'
p4637
g2
(g3
g4
Ntp4638
Rp4639
(dp4640
g8
(dp4641
g10
VREADY
p4642
sg12
Vsles-12-sp2-sap
p4643
sg14
VSUSE, SUSE Linux Enterprise Server 12 SP2 For SAP, x86_64, built on 2018-08-16
p4644
sg16
(dp4645
VcontainerType
p4646
VTAR
p4647
sVsource
p4648
g21
ssg22
V42WmSpB8rSM=
p4649
sg24
Nsg25
V11549784768
p4650
sg38
V10
p4651
sg40
(lp4652
g2
(g42
g4
Ntp4653
Rp4654
(dp4655
g46
Vsles-sap-12
p4656
sg8
(dp4657
g49
Vcompute#license
p4658
sg51
Vhttps://www.googleapis.com/compute/v1/projects/suse-sap-cloud/global/licenses/sles-sap-12
p4659
ssg53
Nsg54
g57
sg4551
Vsuse-sap-cloud
p4660
sg4560
I00
sg275
g4656
sbasg71
V2018-08-16T12:59:27.949-07:00
p4661
sg51
Vhttps://www.googleapis.com/compute/v1/projects/suse-sap-cloud/global/images/sles-12-sp2-sap-v20180816
p4662
sg4571
VRAW
p4663
ssg54
g57
sg275
S'685306792176544112'
p4664
sg53
Nsg46
Vsles-12-sp2-sap-v20180816
p4665
sbs.